

Microchip MPLAB XC8 Assembler V2.46 build 20240104201356 
                                                                                               Fri Mar  1 22:03:21 2024

Microchip MPLAB XC8 C Compiler v2.46 (Free license) build 20240104201356 Og1 
     1                           	processor	16F1936
     2                           	pagewidth 120
     3                           	opt	flic
     4                           	psect	stringtext1,global,class=STRCODE,delta=2,noexec
     5                           	psect	cinit,global,class=CODE,merge=1,delta=2
     6                           	psect	bssCOMMON,global,class=COMMON,space=1,delta=1,noexec
     7                           	psect	bssBANK0,global,class=BANK0,space=1,delta=1,noexec
     8                           	psect	bssBANK1,global,class=BANK1,space=1,delta=1,noexec
     9                           	psect	clrtext,global,class=CODE,delta=2
    10                           	psect	cstackCOMMON,global,class=COMMON,space=1,delta=1,noexec
    11                           	psect	cstackBANK0,global,class=BANK0,space=1,delta=1,noexec
    12                           	psect	maintext,global,class=CODE,merge=1,split=1,delta=2
    13                           	psect	text1,local,class=CODE,merge=1,delta=2
    14                           	psect	text2,local,class=CODE,merge=1,delta=2,group=1
    15                           	psect	text3,local,class=CODE,merge=1,delta=2,group=1
    16                           	psect	text4,local,class=CODE,merge=1,delta=2,group=1
    17                           	psect	text5,local,class=CODE,merge=1,delta=2,group=1
    18                           	psect	text6,local,class=CODE,merge=1,delta=2
    19                           	psect	text7,local,class=CODE,merge=1,delta=2
    20                           	psect	text8,local,class=CODE,merge=1,delta=2
    21                           	psect	text9,local,class=CODE,merge=1,delta=2
    22                           	psect	text10,local,class=CODE,merge=1,delta=2
    23                           	psect	text11,local,class=CODE,merge=1,delta=2
    24                           	psect	text12,local,class=CODE,merge=1,delta=2
    25                           	psect	text13,local,class=CODE,merge=1,delta=2
    26                           	psect	text14,local,class=CODE,merge=1,delta=2
    27                           	psect	text15,local,class=CODE,merge=1,delta=2
    28                           	psect	text16,local,class=CODE,merge=1,delta=2
    29                           	psect	text17,local,class=CODE,merge=1,delta=2
    30                           	psect	text18,local,class=CODE,merge=1,delta=2
    31                           	psect	text19,local,class=CODE,merge=1,delta=2
    32                           	psect	text20,local,class=CODE,merge=1,delta=2
    33                           	psect	text21,local,class=CODE,merge=1,delta=2,group=1
    34                           	psect	text22,local,class=CODE,merge=1,delta=2,group=1
    35                           	psect	text23,local,class=CODE,merge=1,delta=2
    36                           	psect	text24,local,class=CODE,merge=1,delta=2
    37                           	psect	text25,local,class=CODE,merge=1,delta=2
    38                           	psect	intentry,global,class=CODE,delta=2
    39                           	psect	config,global,abs,ovrld,class=CONFIG,space=4,delta=2,noexec
    40                           	dabs	1,0x7E,2
    41     0000                     
    42                           ; Generated 07/09/2023 GMT
    43                           ; 
    44                           ; Copyright © 2023, Microchip Technology Inc. and its subsidiaries ("Microchip")
    45                           ; All rights reserved.
    46                           ; 
    47                           ; This software is developed by Microchip Technology Inc. and its subsidiaries ("Microch
      +                          ip").
    48                           ; 
    49                           ; Redistribution and use in source and binary forms, with or without modification, are
    50                           ; permitted provided that the following conditions are met:
    51                           ; 
    52                           ;     1. Redistributions of source code must retain the above copyright notice, this lis
      +                          t of
    53                           ;        conditions and the following disclaimer.
    54                           ; 
    55                           ;     2. Redistributions in binary form must reproduce the above copyright notice, this 
      +                          list
    56                           ;        of conditions and the following disclaimer in the documentation and/or other
    57                           ;        materials provided with the distribution. Publication is not required when
    58                           ;        this file is used in an embedded application.
    59                           ; 
    60                           ;     3. Microchip's name may not be used to endorse or promote products derived from th
      +                          is
    61                           ;        software without specific prior written permission.
    62                           ; 
    63                           ; THIS SOFTWARE IS PROVIDED BY MICROCHIP "AS IS" AND ANY EXPRESS OR IMPLIED WARRANTIES,
    64                           ; INCLUDING, BUT NOT LIMITED TO, THE IMPLIED WARRANTIES OF MERCHANTABILITY AND FITNESS F
      +                          OR
    65                           ; PURPOSE ARE DISCLAIMED.  IN NO EVENT SHALL MICROCHIP BE LIABLE FOR ANY DIRECT, INDIREC
      +                          T,
    66                           ; INCIDENTAL, SPECIAL, EXEMPLARY, OR CONSEQUENTIAL DAMAGES (INCLUDING BUT NOT LIMITED TO
    67                           ; PROCUREMENT OF SUBSTITUTE GOODS OR SERVICES; LOSS OF USE, DATA OR PROFITS; OR BUSINESS
    68                           ; INTERRUPTION) HOWSOEVER CAUSED AND ON ANY THEORY OF LIABILITY, WHETHER IN CONTRACT, ST
      +                          RICT
    69                           ; LIABILITY, OR TORT (INCLUDING NEGLIGENCE OR OTHERWISE) ARISING IN ANY WAY OUT OF THE U
      +                          SE OF
    70                           ; THIS SOFTWARE, EVEN IF ADVISED OF THE POSSIBILITY OF SUCH DAMAGE.
    71                           ; 
    72                           ; 
    73                           ; Code-generator required, PIC16F1936 Definitions
    74                           ; 
    75                           ; SFR Addresses
    76     0000                     	;# 
    77     0001                     	;# 
    78     0002                     	;# 
    79     0003                     	;# 
    80     0004                     	;# 
    81     0005                     	;# 
    82     0006                     	;# 
    83     0007                     	;# 
    84     0008                     	;# 
    85     0009                     	;# 
    86     000A                     	;# 
    87     000B                     	;# 
    88     000C                     	;# 
    89     000D                     	;# 
    90     000E                     	;# 
    91     0010                     	;# 
    92     0011                     	;# 
    93     0012                     	;# 
    94     0013                     	;# 
    95     0015                     	;# 
    96     0016                     	;# 
    97     0016                     	;# 
    98     0017                     	;# 
    99     0018                     	;# 
   100     0019                     	;# 
   101     001A                     	;# 
   102     001B                     	;# 
   103     001C                     	;# 
   104     001E                     	;# 
   105     001F                     	;# 
   106     008C                     	;# 
   107     008D                     	;# 
   108     008E                     	;# 
   109     0090                     	;# 
   110     0091                     	;# 
   111     0092                     	;# 
   112     0093                     	;# 
   113     0095                     	;# 
   114     0096                     	;# 
   115     0097                     	;# 
   116     0098                     	;# 
   117     0099                     	;# 
   118     009A                     	;# 
   119     009B                     	;# 
   120     009B                     	;# 
   121     009C                     	;# 
   122     009D                     	;# 
   123     009E                     	;# 
   124     010C                     	;# 
   125     010D                     	;# 
   126     010E                     	;# 
   127     0110                     	;# 
   128     0111                     	;# 
   129     0112                     	;# 
   130     0113                     	;# 
   131     0114                     	;# 
   132     0115                     	;# 
   133     0116                     	;# 
   134     0117                     	;# 
   135     0118                     	;# 
   136     0119                     	;# 
   137     011A                     	;# 
   138     011B                     	;# 
   139     011D                     	;# 
   140     018C                     	;# 
   141     018D                     	;# 
   142     0191                     	;# 
   143     0191                     	;# 
   144     0192                     	;# 
   145     0193                     	;# 
   146     0193                     	;# 
   147     0193                     	;# 
   148     0194                     	;# 
   149     0195                     	;# 
   150     0196                     	;# 
   151     0199                     	;# 
   152     019A                     	;# 
   153     019B                     	;# 
   154     019B                     	;# 
   155     019B                     	;# 
   156     019B                     	;# 
   157     019C                     	;# 
   158     019C                     	;# 
   159     019D                     	;# 
   160     019E                     	;# 
   161     019F                     	;# 
   162     020D                     	;# 
   163     0210                     	;# 
   164     0211                     	;# 
   165     0212                     	;# 
   166     0213                     	;# 
   167     0214                     	;# 
   168     0215                     	;# 
   169     0215                     	;# 
   170     0216                     	;# 
   171     0217                     	;# 
   172     0291                     	;# 
   173     0291                     	;# 
   174     0292                     	;# 
   175     0293                     	;# 
   176     0294                     	;# 
   177     0295                     	;# 
   178     0295                     	;# 
   179     0296                     	;# 
   180     0298                     	;# 
   181     0298                     	;# 
   182     0299                     	;# 
   183     029A                     	;# 
   184     029B                     	;# 
   185     029C                     	;# 
   186     029C                     	;# 
   187     029D                     	;# 
   188     029E                     	;# 
   189     029F                     	;# 
   190     0311                     	;# 
   191     0311                     	;# 
   192     0312                     	;# 
   193     0313                     	;# 
   194     0314                     	;# 
   195     0315                     	;# 
   196     0315                     	;# 
   197     0316                     	;# 
   198     0318                     	;# 
   199     0318                     	;# 
   200     0319                     	;# 
   201     031A                     	;# 
   202     031C                     	;# 
   203     031C                     	;# 
   204     031D                     	;# 
   205     031E                     	;# 
   206     0394                     	;# 
   207     0395                     	;# 
   208     0396                     	;# 
   209     0415                     	;# 
   210     0416                     	;# 
   211     0417                     	;# 
   212     041C                     	;# 
   213     041D                     	;# 
   214     041E                     	;# 
   215     0791                     	;# 
   216     0792                     	;# 
   217     0793                     	;# 
   218     0794                     	;# 
   219     0795                     	;# 
   220     0798                     	;# 
   221     0799                     	;# 
   222     07A0                     	;# 
   223     07A1                     	;# 
   224     07A3                     	;# 
   225     07A4                     	;# 
   226     07A6                     	;# 
   227     07A7                     	;# 
   228     07A9                     	;# 
   229     07AA                     	;# 
   230     0FE4                     	;# 
   231     0FE5                     	;# 
   232     0FE6                     	;# 
   233     0FE7                     	;# 
   234     0FE8                     	;# 
   235     0FE9                     	;# 
   236     0FEA                     	;# 
   237     0FEB                     	;# 
   238     0FED                     	;# 
   239     0FEE                     	;# 
   240     0FEF                     	;# 
   241     0000                     	;# 
   242     0001                     	;# 
   243     0002                     	;# 
   244     0003                     	;# 
   245     0004                     	;# 
   246     0005                     	;# 
   247     0006                     	;# 
   248     0007                     	;# 
   249     0008                     	;# 
   250     0009                     	;# 
   251     000A                     	;# 
   252     000B                     	;# 
   253     000C                     	;# 
   254     000D                     	;# 
   255     000E                     	;# 
   256     0010                     	;# 
   257     0011                     	;# 
   258     0012                     	;# 
   259     0013                     	;# 
   260     0015                     	;# 
   261     0016                     	;# 
   262     0016                     	;# 
   263     0017                     	;# 
   264     0018                     	;# 
   265     0019                     	;# 
   266     001A                     	;# 
   267     001B                     	;# 
   268     001C                     	;# 
   269     001E                     	;# 
   270     001F                     	;# 
   271     008C                     	;# 
   272     008D                     	;# 
   273     008E                     	;# 
   274     0090                     	;# 
   275     0091                     	;# 
   276     0092                     	;# 
   277     0093                     	;# 
   278     0095                     	;# 
   279     0096                     	;# 
   280     0097                     	;# 
   281     0098                     	;# 
   282     0099                     	;# 
   283     009A                     	;# 
   284     009B                     	;# 
   285     009B                     	;# 
   286     009C                     	;# 
   287     009D                     	;# 
   288     009E                     	;# 
   289     010C                     	;# 
   290     010D                     	;# 
   291     010E                     	;# 
   292     0110                     	;# 
   293     0111                     	;# 
   294     0112                     	;# 
   295     0113                     	;# 
   296     0114                     	;# 
   297     0115                     	;# 
   298     0116                     	;# 
   299     0117                     	;# 
   300     0118                     	;# 
   301     0119                     	;# 
   302     011A                     	;# 
   303     011B                     	;# 
   304     011D                     	;# 
   305     018C                     	;# 
   306     018D                     	;# 
   307     0191                     	;# 
   308     0191                     	;# 
   309     0192                     	;# 
   310     0193                     	;# 
   311     0193                     	;# 
   312     0193                     	;# 
   313     0194                     	;# 
   314     0195                     	;# 
   315     0196                     	;# 
   316     0199                     	;# 
   317     019A                     	;# 
   318     019B                     	;# 
   319     019B                     	;# 
   320     019B                     	;# 
   321     019B                     	;# 
   322     019C                     	;# 
   323     019C                     	;# 
   324     019D                     	;# 
   325     019E                     	;# 
   326     019F                     	;# 
   327     020D                     	;# 
   328     0210                     	;# 
   329     0211                     	;# 
   330     0212                     	;# 
   331     0213                     	;# 
   332     0214                     	;# 
   333     0215                     	;# 
   334     0215                     	;# 
   335     0216                     	;# 
   336     0217                     	;# 
   337     0291                     	;# 
   338     0291                     	;# 
   339     0292                     	;# 
   340     0293                     	;# 
   341     0294                     	;# 
   342     0295                     	;# 
   343     0295                     	;# 
   344     0296                     	;# 
   345     0298                     	;# 
   346     0298                     	;# 
   347     0299                     	;# 
   348     029A                     	;# 
   349     029B                     	;# 
   350     029C                     	;# 
   351     029C                     	;# 
   352     029D                     	;# 
   353     029E                     	;# 
   354     029F                     	;# 
   355     0311                     	;# 
   356     0311                     	;# 
   357     0312                     	;# 
   358     0313                     	;# 
   359     0314                     	;# 
   360     0315                     	;# 
   361     0315                     	;# 
   362     0316                     	;# 
   363     0318                     	;# 
   364     0318                     	;# 
   365     0319                     	;# 
   366     031A                     	;# 
   367     031C                     	;# 
   368     031C                     	;# 
   369     031D                     	;# 
   370     031E                     	;# 
   371     0394                     	;# 
   372     0395                     	;# 
   373     0396                     	;# 
   374     0415                     	;# 
   375     0416                     	;# 
   376     0417                     	;# 
   377     041C                     	;# 
   378     041D                     	;# 
   379     041E                     	;# 
   380     0791                     	;# 
   381     0792                     	;# 
   382     0793                     	;# 
   383     0794                     	;# 
   384     0795                     	;# 
   385     0798                     	;# 
   386     0799                     	;# 
   387     07A0                     	;# 
   388     07A1                     	;# 
   389     07A3                     	;# 
   390     07A4                     	;# 
   391     07A6                     	;# 
   392     07A7                     	;# 
   393     07A9                     	;# 
   394     07AA                     	;# 
   395     0FE4                     	;# 
   396     0FE5                     	;# 
   397     0FE6                     	;# 
   398     0FE7                     	;# 
   399     0FE8                     	;# 
   400     0FE9                     	;# 
   401     0FEA                     	;# 
   402     0FEB                     	;# 
   403     0FED                     	;# 
   404     0FEE                     	;# 
   405     0FEF                     	;# 
   406     0000                     	;# 
   407     0001                     	;# 
   408     0002                     	;# 
   409     0003                     	;# 
   410     0004                     	;# 
   411     0005                     	;# 
   412     0006                     	;# 
   413     0007                     	;# 
   414     0008                     	;# 
   415     0009                     	;# 
   416     000A                     	;# 
   417     000B                     	;# 
   418     000C                     	;# 
   419     000D                     	;# 
   420     000E                     	;# 
   421     0010                     	;# 
   422     0011                     	;# 
   423     0012                     	;# 
   424     0013                     	;# 
   425     0015                     	;# 
   426     0016                     	;# 
   427     0016                     	;# 
   428     0017                     	;# 
   429     0018                     	;# 
   430     0019                     	;# 
   431     001A                     	;# 
   432     001B                     	;# 
   433     001C                     	;# 
   434     001E                     	;# 
   435     001F                     	;# 
   436     008C                     	;# 
   437     008D                     	;# 
   438     008E                     	;# 
   439     0090                     	;# 
   440     0091                     	;# 
   441     0092                     	;# 
   442     0093                     	;# 
   443     0095                     	;# 
   444     0096                     	;# 
   445     0097                     	;# 
   446     0098                     	;# 
   447     0099                     	;# 
   448     009A                     	;# 
   449     009B                     	;# 
   450     009B                     	;# 
   451     009C                     	;# 
   452     009D                     	;# 
   453     009E                     	;# 
   454     010C                     	;# 
   455     010D                     	;# 
   456     010E                     	;# 
   457     0110                     	;# 
   458     0111                     	;# 
   459     0112                     	;# 
   460     0113                     	;# 
   461     0114                     	;# 
   462     0115                     	;# 
   463     0116                     	;# 
   464     0117                     	;# 
   465     0118                     	;# 
   466     0119                     	;# 
   467     011A                     	;# 
   468     011B                     	;# 
   469     011D                     	;# 
   470     018C                     	;# 
   471     018D                     	;# 
   472     0191                     	;# 
   473     0191                     	;# 
   474     0192                     	;# 
   475     0193                     	;# 
   476     0193                     	;# 
   477     0193                     	;# 
   478     0194                     	;# 
   479     0195                     	;# 
   480     0196                     	;# 
   481     0199                     	;# 
   482     019A                     	;# 
   483     019B                     	;# 
   484     019B                     	;# 
   485     019B                     	;# 
   486     019B                     	;# 
   487     019C                     	;# 
   488     019C                     	;# 
   489     019D                     	;# 
   490     019E                     	;# 
   491     019F                     	;# 
   492     020D                     	;# 
   493     0210                     	;# 
   494     0211                     	;# 
   495     0212                     	;# 
   496     0213                     	;# 
   497     0214                     	;# 
   498     0215                     	;# 
   499     0215                     	;# 
   500     0216                     	;# 
   501     0217                     	;# 
   502     0291                     	;# 
   503     0291                     	;# 
   504     0292                     	;# 
   505     0293                     	;# 
   506     0294                     	;# 
   507     0295                     	;# 
   508     0295                     	;# 
   509     0296                     	;# 
   510     0298                     	;# 
   511     0298                     	;# 
   512     0299                     	;# 
   513     029A                     	;# 
   514     029B                     	;# 
   515     029C                     	;# 
   516     029C                     	;# 
   517     029D                     	;# 
   518     029E                     	;# 
   519     029F                     	;# 
   520     0311                     	;# 
   521     0311                     	;# 
   522     0312                     	;# 
   523     0313                     	;# 
   524     0314                     	;# 
   525     0315                     	;# 
   526     0315                     	;# 
   527     0316                     	;# 
   528     0318                     	;# 
   529     0318                     	;# 
   530     0319                     	;# 
   531     031A                     	;# 
   532     031C                     	;# 
   533     031C                     	;# 
   534     031D                     	;# 
   535     031E                     	;# 
   536     0394                     	;# 
   537     0395                     	;# 
   538     0396                     	;# 
   539     0415                     	;# 
   540     0416                     	;# 
   541     0417                     	;# 
   542     041C                     	;# 
   543     041D                     	;# 
   544     041E                     	;# 
   545     0791                     	;# 
   546     0792                     	;# 
   547     0793                     	;# 
   548     0794                     	;# 
   549     0795                     	;# 
   550     0798                     	;# 
   551     0799                     	;# 
   552     07A0                     	;# 
   553     07A1                     	;# 
   554     07A3                     	;# 
   555     07A4                     	;# 
   556     07A6                     	;# 
   557     07A7                     	;# 
   558     07A9                     	;# 
   559     07AA                     	;# 
   560     0FE4                     	;# 
   561     0FE5                     	;# 
   562     0FE6                     	;# 
   563     0FE7                     	;# 
   564     0FE8                     	;# 
   565     0FE9                     	;# 
   566     0FEA                     	;# 
   567     0FEB                     	;# 
   568     0FED                     	;# 
   569     0FEE                     	;# 
   570     0FEF                     	;# 
   571     0000                     	;# 
   572     0001                     	;# 
   573     0002                     	;# 
   574     0003                     	;# 
   575     0004                     	;# 
   576     0005                     	;# 
   577     0006                     	;# 
   578     0007                     	;# 
   579     0008                     	;# 
   580     0009                     	;# 
   581     000A                     	;# 
   582     000B                     	;# 
   583     000C                     	;# 
   584     000D                     	;# 
   585     000E                     	;# 
   586     0010                     	;# 
   587     0011                     	;# 
   588     0012                     	;# 
   589     0013                     	;# 
   590     0015                     	;# 
   591     0016                     	;# 
   592     0016                     	;# 
   593     0017                     	;# 
   594     0018                     	;# 
   595     0019                     	;# 
   596     001A                     	;# 
   597     001B                     	;# 
   598     001C                     	;# 
   599     001E                     	;# 
   600     001F                     	;# 
   601     008C                     	;# 
   602     008D                     	;# 
   603     008E                     	;# 
   604     0090                     	;# 
   605     0091                     	;# 
   606     0092                     	;# 
   607     0093                     	;# 
   608     0095                     	;# 
   609     0096                     	;# 
   610     0097                     	;# 
   611     0098                     	;# 
   612     0099                     	;# 
   613     009A                     	;# 
   614     009B                     	;# 
   615     009B                     	;# 
   616     009C                     	;# 
   617     009D                     	;# 
   618     009E                     	;# 
   619     010C                     	;# 
   620     010D                     	;# 
   621     010E                     	;# 
   622     0110                     	;# 
   623     0111                     	;# 
   624     0112                     	;# 
   625     0113                     	;# 
   626     0114                     	;# 
   627     0115                     	;# 
   628     0116                     	;# 
   629     0117                     	;# 
   630     0118                     	;# 
   631     0119                     	;# 
   632     011A                     	;# 
   633     011B                     	;# 
   634     011D                     	;# 
   635     018C                     	;# 
   636     018D                     	;# 
   637     0191                     	;# 
   638     0191                     	;# 
   639     0192                     	;# 
   640     0193                     	;# 
   641     0193                     	;# 
   642     0193                     	;# 
   643     0194                     	;# 
   644     0195                     	;# 
   645     0196                     	;# 
   646     0199                     	;# 
   647     019A                     	;# 
   648     019B                     	;# 
   649     019B                     	;# 
   650     019B                     	;# 
   651     019B                     	;# 
   652     019C                     	;# 
   653     019C                     	;# 
   654     019D                     	;# 
   655     019E                     	;# 
   656     019F                     	;# 
   657     020D                     	;# 
   658     0210                     	;# 
   659     0211                     	;# 
   660     0212                     	;# 
   661     0213                     	;# 
   662     0214                     	;# 
   663     0215                     	;# 
   664     0215                     	;# 
   665     0216                     	;# 
   666     0217                     	;# 
   667     0291                     	;# 
   668     0291                     	;# 
   669     0292                     	;# 
   670     0293                     	;# 
   671     0294                     	;# 
   672     0295                     	;# 
   673     0295                     	;# 
   674     0296                     	;# 
   675     0298                     	;# 
   676     0298                     	;# 
   677     0299                     	;# 
   678     029A                     	;# 
   679     029B                     	;# 
   680     029C                     	;# 
   681     029C                     	;# 
   682     029D                     	;# 
   683     029E                     	;# 
   684     029F                     	;# 
   685     0311                     	;# 
   686     0311                     	;# 
   687     0312                     	;# 
   688     0313                     	;# 
   689     0314                     	;# 
   690     0315                     	;# 
   691     0315                     	;# 
   692     0316                     	;# 
   693     0318                     	;# 
   694     0318                     	;# 
   695     0319                     	;# 
   696     031A                     	;# 
   697     031C                     	;# 
   698     031C                     	;# 
   699     031D                     	;# 
   700     031E                     	;# 
   701     0394                     	;# 
   702     0395                     	;# 
   703     0396                     	;# 
   704     0415                     	;# 
   705     0416                     	;# 
   706     0417                     	;# 
   707     041C                     	;# 
   708     041D                     	;# 
   709     041E                     	;# 
   710     0791                     	;# 
   711     0792                     	;# 
   712     0793                     	;# 
   713     0794                     	;# 
   714     0795                     	;# 
   715     0798                     	;# 
   716     0799                     	;# 
   717     07A0                     	;# 
   718     07A1                     	;# 
   719     07A3                     	;# 
   720     07A4                     	;# 
   721     07A6                     	;# 
   722     07A7                     	;# 
   723     07A9                     	;# 
   724     07AA                     	;# 
   725     0FE4                     	;# 
   726     0FE5                     	;# 
   727     0FE6                     	;# 
   728     0FE7                     	;# 
   729     0FE8                     	;# 
   730     0FE9                     	;# 
   731     0FEA                     	;# 
   732     0FEB                     	;# 
   733     0FED                     	;# 
   734     0FEE                     	;# 
   735     0FEF                     	;# 
   736                           
   737                           	psect	stringtext1
   738     1000                     __pstringtext1:
   739     1000                     _DisplayNum:
   740     1000  343F               	retlw	63
   741     1001  3406               	retlw	6
   742     1002  345B               	retlw	91
   743     1003  344F               	retlw	79
   744     1004  3466               	retlw	102
   745     1005  346D               	retlw	109
   746     1006  347D               	retlw	125
   747     1007  3407               	retlw	7
   748     1008  347F               	retlw	127
   749     1009  346F               	retlw	111
   750     100A                     __end_of_DisplayNum:
   751     000B                     _INTCONbits	set	11
   752     0003                     _STATUSbits	set	3
   753     000D                     _PORTBbits	set	13
   754     000D                     _PORTB	set	13
   755     000E                     _PORTC	set	14
   756     001B                     _PR2	set	27
   757     001A                     _TMR2	set	26
   758     005D                     _TMR0IE	set	93
   759     005A                     _TMR0IF	set	90
   760     005F                     _GIE	set	95
   761     0089                     _TMR2IF	set	137
   762     00E2                     _TMR2ON	set	226
   763     0095                     _OPTION_REG	set	149
   764     0099                     _OSCCON	set	153
   765     008E                     _TRISC	set	142
   766     008D                     _TRISB	set	141
   767     04AD                     _T0CS	set	1197
   768     0464                     _TRISA4	set	1124
   769     0489                     _TMR2IE	set	1161
   770     010E                     _LATC	set	270
   771     0191                     _EEADR	set	401
   772     0196                     _EECON2	set	406
   773     0193                     _EEDATA	set	403
   774     0195                     _EECON1	set	405
   775     0195                     _EECON1bits	set	405
   776     018D                     _ANSELB	set	397
   777     031C                     _CCPR5L	set	796
   778     031E                     _CCP5CON	set	798
   779                           
   780                           	psect	cinit
   781     0065                     start_initialization:	
   782                           ; #config settings
   783                           
   784     0065                     __initialization:
   785                           
   786                           ; Clear objects allocated to COMMON
   787     0065  01FC               	clrf	__pbssCOMMON& (0+127)
   788                           
   789                           ; Clear objects allocated to BANK0
   790     0066  305A               	movlw	low __pbssBANK0
   791     0067  0084               	movwf	4
   792     0068  3000               	movlw	high __pbssBANK0
   793     0069  0085               	movwf	5
   794     006A  3016               	movlw	22
   795     006B  318E  26BE  3180   	fcall	clear_ram0
   796                           
   797                           ; Clear objects allocated to BANK1
   798     006E  0021               	movlb	1	; select bank1
   799     006F  01A0               	clrf	__pbssBANK1& (0+127)
   800     0070  01A1               	clrf	(__pbssBANK1+1)& (0+127)
   801     0071  01A2               	clrf	(__pbssBANK1+2)& (0+127)
   802     0072  01A3               	clrf	(__pbssBANK1+3)& (0+127)
   803     0073                     end_of_initialization:	
   804                           ;End of C runtime variable initialization code
   805                           
   806     0073                     __end_of__initialization:
   807     0073  107E               	bcf	int$flags,0	;clear compiler interrupt flag (level 1)
   808     0074  0020               	movlb	0
   809     0075  3183  2BF2         	ljmp	_main	;jump to C main() function
   810                           
   811                           	psect	bssCOMMON
   812     007C                     __pbssCOMMON:
   813     007C                     _pos:
   814     007C                     	ds	1
   815                           
   816                           	psect	bssBANK0
   817     005A                     __pbssBANK0:
   818     005A                     _digipos:
   819     005A                     	ds	4
   820     005E                     _pwm_period:
   821     005E                     	ds	4
   822     0062                     _last_value:
   823     0062                     	ds	2
   824     0064                     _curr_value:
   825     0064                     	ds	2
   826     0066                     _max_value:
   827     0066                     	ds	2
   828     0068                     _pwm_value:
   829     0068                     	ds	2
   830     006A                     _duty_cycle:
   831     006A                     	ds	2
   832     006C                     _is_pwm_loaded:
   833     006C                     	ds	1
   834     006D                     _is_pwm_configured:
   835     006D                     	ds	1
   836     006E                     _last_value_status:
   837     006E                     	ds	1
   838     006F                     _on_time_int:
   839     006F                     	ds	1
   840                           
   841                           	psect	bssBANK1
   842     00A0                     __pbssBANK1:
   843     00A0                     _on_time:
   844     00A0                     	ds	4
   845                           
   846                           	psect	clrtext
   847     0EBE                     clear_ram0:	
   848                           ;	Called with FSR0 containing the base address, and
   849                           ;	WREG with the size to clear
   850                           
   851     0EBE  0064               	clrwdt	;clear the watchdog before getting into this loop
   852     0EBF                     clrloop0:
   853     0EBF  0180               	clrf	0	;clear RAM location pointed to by FSR
   854     0EC0  3101               	addfsr 0,1
   855     0EC1  0B89               	decfsz	9,f	;Have we reached the end of clearing yet?
   856     0EC2  2EBF               	goto	clrloop0	;have we reached the end yet?
   857     0EC3  3400               	retlw	0	;all done for this memory range, return
   858                           
   859                           	psect	cstackCOMMON
   860     0070                     __pcstackCOMMON:
   861     0070                     ?_eeprom_read:
   862     0070                     ?_load_pwm:	
   863                           ; 1 bytes @ 0x0
   864                           
   865     0070                     ?_initPwm:	
   866                           ; 1 bytes @ 0x0
   867                           
   868     0070                     ?_init_port:	
   869                           ; 1 bytes @ 0x0
   870                           
   871     0070                     ?_is_inc_switch_pressed:	
   872                           ; 1 bytes @ 0x0
   873                           
   874     0070                     ?_is_dec_switch_pressed:	
   875                           ; 1 bytes @ 0x0
   876                           
   877     0070                     ?_init_timer:	
   878                           ; 1 bytes @ 0x0
   879                           
   880     0070                     ?_isr:	
   881                           ; 1 bytes @ 0x0
   882                           
   883     0070                     ??_isr:	
   884                           ; 1 bytes @ 0x0
   885                           
   886     0070                     ?_display_SET_command:	
   887                           ; 1 bytes @ 0x0
   888                           
   889     0070                     ?_display_FR_command:	
   890                           ; 1 bytes @ 0x0
   891                           
   892     0070                     ?_get_and_set_increment:	
   893                           ; 1 bytes @ 0x0
   894                           
   895     0070                     ?_get_and_set_decrement:	
   896                           ; 1 bytes @ 0x0
   897                           
   898     0070                     ?_init_EEPROM:	
   899                           ; 1 bytes @ 0x0
   900                           
   901     0070                     ?_check_and_set_max:	
   902                           ; 1 bytes @ 0x0
   903                           
   904     0070                     ?_set_factory_settings:	
   905                           ; 1 bytes @ 0x0
   906                           
   907     0070                     ?_init:	
   908                           ; 1 bytes @ 0x0
   909                           
   910     0070                     ?_main:	
   911                           ; 1 bytes @ 0x0
   912                           
   913                           
   914                           ; 1 bytes @ 0x0
   915     0070                     	ds	1
   916     0071                     ??_eeprom_read:
   917     0071                     ?_eeprom_write:	
   918                           ; 1 bytes @ 0x1
   919                           
   920     0071                     ??_load_pwm:	
   921                           ; 1 bytes @ 0x1
   922                           
   923     0071                     ??_init_port:	
   924                           ; 1 bytes @ 0x1
   925                           
   926     0071                     ??_is_inc_switch_pressed:	
   927                           ; 1 bytes @ 0x1
   928                           
   929     0071                     ??_is_dec_switch_pressed:	
   930                           ; 1 bytes @ 0x1
   931                           
   932     0071                     ??_init_timer:	
   933                           ; 1 bytes @ 0x1
   934                           
   935     0071                     ??_display_SET_command:	
   936                           ; 1 bytes @ 0x1
   937                           
   938     0071                     ??_display_FR_command:	
   939                           ; 1 bytes @ 0x1
   940                           
   941     0071                     ?__Umul8_16:	
   942                           ; 1 bytes @ 0x1
   943                           
   944     0071                     ?___lwdiv:	
   945                           ; 2 bytes @ 0x1
   946                           
   947     0071                     eeprom_write@value:	
   948                           ; 2 bytes @ 0x1
   949                           
   950     0071                     __Umul8_16@multiplicand:	
   951                           ; 1 bytes @ 0x1
   952                           
   953     0071                     ___lwdiv@divisor:	
   954                           ; 1 bytes @ 0x1
   955                           
   956                           
   957                           ; 2 bytes @ 0x1
   958     0071                     	ds	1
   959     0072                     ??_eeprom_write:
   960     0072                     is_inc_switch_pressed@switch_status:	
   961                           ; 1 bytes @ 0x2
   962                           
   963     0072                     is_dec_switch_pressed@switch_status:	
   964                           ; 1 bytes @ 0x2
   965                           
   966                           
   967                           ; 1 bytes @ 0x2
   968     0072                     	ds	1
   969     0073                     ??__Umul8_16:
   970     0073                     load_pwm@lsb:	
   971                           ; 1 bytes @ 0x3
   972                           
   973     0073                     ___lwdiv@dividend:	
   974                           ; 1 bytes @ 0x3
   975                           
   976                           
   977                           ; 2 bytes @ 0x3
   978     0073                     	ds	1
   979     0074                     load_pwm@msb:
   980     0074                     eeprom_read@addr:	
   981                           ; 1 bytes @ 0x4
   982                           
   983     0074                     eeprom_write@addr:	
   984                           ; 1 bytes @ 0x4
   985                           
   986                           
   987                           ; 1 bytes @ 0x4
   988     0074                     	ds	1
   989     0075                     ??_init_EEPROM:
   990     0075                     ??_set_factory_settings:	
   991                           ; 1 bytes @ 0x5
   992                           
   993     0075                     ??___lwdiv:	
   994                           ; 1 bytes @ 0x5
   995                           
   996     0075                     load_pwm@pwm_value:	
   997                           ; 1 bytes @ 0x5
   998                           
   999     0075                     __Umul8_16@product:	
  1000                           ; 1 bytes @ 0x5
  1001                           
  1002                           
  1003                           ; 2 bytes @ 0x5
  1004     0075                     	ds	1
  1005     0076                     ??_initPwm:
  1006     0076                     ___lwdiv@counter:	
  1007                           ; 1 bytes @ 0x6
  1008                           
  1009                           
  1010                           ; 1 bytes @ 0x6
  1011     0076                     	ds	1
  1012     0077                     set_factory_settings@i:
  1013     0077                     ___lwdiv@quotient:	
  1014                           ; 1 bytes @ 0x7
  1015                           
  1016     0077                     __Umul8_16@word_mpld:	
  1017                           ; 2 bytes @ 0x7
  1018                           
  1019                           
  1020                           ; 2 bytes @ 0x7
  1021     0077                     	ds	1
  1022     0078                     set_factory_settings@factory_setting_mode_enabled:
  1023                           
  1024                           ; 1 bytes @ 0x8
  1025     0078                     	ds	1
  1026     0079                     ??___lwmod:
  1027     0079                     set_factory_settings@j:	
  1028                           ; 1 bytes @ 0x9
  1029                           
  1030     0079                     __Umul8_16@multiplier:	
  1031                           ; 1 bytes @ 0x9
  1032                           
  1033                           
  1034                           ; 1 bytes @ 0x9
  1035     0079                     	ds	1
  1036     007A                     ___fltol@sign1:
  1037     007A                     ___lwmod@counter:	
  1038                           ; 1 bytes @ 0xA
  1039                           
  1040                           
  1041                           ; 1 bytes @ 0xA
  1042     007A                     	ds	1
  1043     007B                     ??_display_digit:
  1044     007B                     ??_get_and_set_increment:	
  1045                           ; 1 bytes @ 0xB
  1046                           
  1047     007B                     ??_get_and_set_decrement:	
  1048                           ; 1 bytes @ 0xB
  1049                           
  1050     007B                     init@counter:	
  1051                           ; 1 bytes @ 0xB
  1052                           
  1053     007B                     ___fltol@exp1:	
  1054                           ; 1 bytes @ 0xB
  1055                           
  1056                           
  1057                           ; 1 bytes @ 0xB
  1058     007B                     	ds	1
  1059     007C                     ??_main:
  1060                           
  1061                           	psect	cstackBANK0
  1062     0020                     __pcstackBANK0:	
  1063                           ; 1 bytes @ 0xC
  1064                           
  1065     0020                     ?___lwmod:
  1066     0020                     ?___xxtofl:	
  1067                           ; 2 bytes @ 0x0
  1068                           
  1069     0020                     init_EEPROM@last_lower_byte_rd:	
  1070                           ; 4 bytes @ 0x0
  1071                           
  1072     0020                     ___lwmod@divisor:	
  1073                           ; 2 bytes @ 0x0
  1074                           
  1075     0020                     ___xxtofl@val:	
  1076                           ; 2 bytes @ 0x0
  1077                           
  1078                           
  1079                           ; 4 bytes @ 0x0
  1080     0020                     	ds	2
  1081     0022                     init_EEPROM@last_upper_byte_rd:
  1082     0022                     ___lwmod@dividend:	
  1083                           ; 2 bytes @ 0x2
  1084                           
  1085                           
  1086                           ; 2 bytes @ 0x2
  1087     0022                     	ds	2
  1088     0024                     ?_display_digit:
  1089     0024                     ??___xxtofl:	
  1090                           ; 1 bytes @ 0x4
  1091                           
  1092     0024                     display_digit@value:	
  1093                           ; 1 bytes @ 0x4
  1094                           
  1095     0024                     init_EEPROM@max_lower_byte_rd:	
  1096                           ; 2 bytes @ 0x4
  1097                           
  1098                           
  1099                           ; 2 bytes @ 0x4
  1100     0024                     	ds	2
  1101     0026                     ?_set_delay_and_display:
  1102     0026                     set_delay_and_display@counter:	
  1103                           ; 1 bytes @ 0x6
  1104                           
  1105     0026                     init_EEPROM@max_upper_byte_rd:	
  1106                           ; 2 bytes @ 0x6
  1107                           
  1108                           
  1109                           ; 2 bytes @ 0x6
  1110     0026                     	ds	2
  1111     0028                     ??_set_delay_and_display:
  1112     0028                     ___xxtofl@sign:	
  1113                           ; 1 bytes @ 0x8
  1114                           
  1115                           
  1116                           ; 1 bytes @ 0x8
  1117     0028                     	ds	1
  1118     0029                     ___xxtofl@exp:
  1119                           
  1120                           ; 1 bytes @ 0x9
  1121     0029                     	ds	1
  1122     002A                     get_and_set_increment@counter:
  1123     002A                     get_and_set_decrement@counter:	
  1124                           ; 2 bytes @ 0xA
  1125                           
  1126     002A                     ___xxtofl@arg:	
  1127                           ; 2 bytes @ 0xA
  1128                           
  1129                           
  1130                           ; 4 bytes @ 0xA
  1131     002A                     	ds	2
  1132     002C                     ??_check_and_set_max:
  1133                           
  1134                           ; 1 bytes @ 0xC
  1135     002C                     	ds	2
  1136     002E                     ?___flmul:
  1137     002E                     check_and_set_max@max_lower_byte_wr:	
  1138                           ; 4 bytes @ 0xE
  1139                           
  1140     002E                     ___flmul@b:	
  1141                           ; 1 bytes @ 0xE
  1142                           
  1143                           
  1144                           ; 4 bytes @ 0xE
  1145     002E                     	ds	1
  1146     002F                     check_and_set_max@max_value_setting_selected:
  1147                           
  1148                           ; 1 bytes @ 0xF
  1149     002F                     	ds	1
  1150     0030                     check_and_set_max@max_upper_byte_wr:
  1151                           
  1152                           ; 1 bytes @ 0x10
  1153     0030                     	ds	1
  1154     0031                     check_and_set_max@max_eeprom:
  1155                           
  1156                           ; 2 bytes @ 0x11
  1157     0031                     	ds	1
  1158     0032                     ___flmul@a:
  1159                           
  1160                           ; 4 bytes @ 0x12
  1161     0032                     	ds	1
  1162     0033                     check_and_set_max@some_value_set:
  1163                           
  1164                           ; 1 bytes @ 0x13
  1165     0033                     	ds	1
  1166     0034                     ??_init:
  1167                           
  1168                           ; 1 bytes @ 0x14
  1169     0034                     	ds	2
  1170     0036                     ??___flmul:
  1171                           
  1172                           ; 1 bytes @ 0x16
  1173     0036                     	ds	5
  1174     003B                     ___flmul@sign:
  1175                           
  1176                           ; 1 bytes @ 0x1B
  1177     003B                     	ds	1
  1178     003C                     ___flmul@grs:
  1179                           
  1180                           ; 4 bytes @ 0x1C
  1181     003C                     	ds	4
  1182     0040                     ___flmul@aexp:
  1183                           
  1184                           ; 1 bytes @ 0x20
  1185     0040                     	ds	1
  1186     0041                     ___flmul@bexp:
  1187                           
  1188                           ; 1 bytes @ 0x21
  1189     0041                     	ds	1
  1190     0042                     ___flmul@prod:
  1191                           
  1192                           ; 4 bytes @ 0x22
  1193     0042                     	ds	4
  1194     0046                     ___flmul@temp:
  1195                           
  1196                           ; 2 bytes @ 0x26
  1197     0046                     	ds	2
  1198     0048                     ?___fltol:
  1199     0048                     ___fltol@f1:	
  1200                           ; 4 bytes @ 0x28
  1201                           
  1202                           
  1203                           ; 4 bytes @ 0x28
  1204     0048                     	ds	4
  1205     004C                     ??___fltol:
  1206                           
  1207                           ; 1 bytes @ 0x2C
  1208     004C                     	ds	4
  1209     0050                     ?_map_value_to_pwm_resolution:
  1210     0050                     map_value_to_pwm_resolution@x:	
  1211                           ; 2 bytes @ 0x30
  1212                           
  1213                           
  1214                           ; 2 bytes @ 0x30
  1215     0050                     	ds	2
  1216     0052                     map_value_to_pwm_resolution@max_value:
  1217                           
  1218                           ; 2 bytes @ 0x32
  1219     0052                     	ds	2
  1220     0054                     ??_map_value_to_pwm_resolution:
  1221                           
  1222                           ; 1 bytes @ 0x34
  1223     0054                     	ds	4
  1224     0058                     main@last_lower_byte_wr:
  1225                           
  1226                           ; 1 bytes @ 0x38
  1227     0058                     	ds	1
  1228     0059                     main@last_upper_byte_wr:
  1229                           
  1230                           ; 1 bytes @ 0x39
  1231     0059                     	ds	1
  1232                           
  1233                           	psect	maintext
  1234     03F2                     __pmaintext:	
  1235 ;;
  1236 ;;Main: autosize = 0, tempsize = 0, incstack = 0, save=0
  1237 ;;
  1238 ;; *************** function _main *****************
  1239 ;; Defined at:
  1240 ;;		line 554 in file "main.c"
  1241 ;; Parameters:    Size  Location     Type
  1242 ;;		None
  1243 ;; Auto vars:     Size  Location     Type
  1244 ;;  last_upper_b    1   57[BANK0 ] unsigned char 
  1245 ;;  last_lower_b    1   56[BANK0 ] unsigned char 
  1246 ;;  any_switch_p    1    0        unsigned char 
  1247 ;; Return value:  Size  Location     Type
  1248 ;;                  1    wreg      void 
  1249 ;; Registers used:
  1250 ;;		wreg, fsr0l, fsr0h, status,2, status,0, pclath, cstack
  1251 ;; Tracked objects:
  1252 ;;		On entry : B1F/0
  1253 ;;		On exit  : 0/0
  1254 ;;		Unchanged: 0/0
  1255 ;; Data sizes:     COMMON   BANK0   BANK1   BANK2   BANK3   BANK4   BANK5
  1256 ;;      Params:         0       0       0       0       0       0       0
  1257 ;;      Locals:         0       2       0       0       0       0       0
  1258 ;;      Temps:          0       0       0       0       0       0       0
  1259 ;;      Totals:         0       2       0       0       0       0       0
  1260 ;;Total ram usage:        2 bytes
  1261 ;; Hardware stack levels required when called: 7
  1262 ;; This function calls:
  1263 ;;		_display_digit
  1264 ;;		_eeprom_write
  1265 ;;		_get_and_set_decrement
  1266 ;;		_get_and_set_increment
  1267 ;;		_init
  1268 ;;		_is_dec_switch_pressed
  1269 ;;		_is_inc_switch_pressed
  1270 ;;		_load_pwm
  1271 ;;		_map_value_to_pwm_resolution
  1272 ;; This function is called by:
  1273 ;;		Startup code after reset
  1274 ;; This function uses a non-reentrant model
  1275 ;;
  1276                           
  1277     03F2                     _main:	
  1278                           ;psect for function _main
  1279                           
  1280     03F2                     l2779:	
  1281                           ;incstack = 0
  1282                           ; Regs used in _main: [wreg-fsr0h+status,2+status,0+pclath+cstack]
  1283                           
  1284     03F2                     l2781:
  1285                           
  1286                           ;main.c: 557:     display_digit(0);
  1287     03F2  3000               	movlw	0
  1288     03F3  0020               	movlb	0	; select bank0
  1289     03F4  00A4               	movwf	display_digit@value
  1290     03F5  00A5               	movwf	display_digit@value+1
  1291     03F6  3184  2482  3183   	fcall	_display_digit
  1292     03F9                     l2783:
  1293                           
  1294                           ;main.c: 558:     init();
  1295     03F9  318F  27C7  3183   	fcall	_init
  1296     03FC                     l2785:
  1297                           
  1298                           ;main.c: 559:     curr_value = last_value;
  1299     03FC  0020               	movlb	0	; select bank0
  1300     03FD  0863               	movf	_last_value+1,w
  1301     03FE  00E5               	movwf	_curr_value+1
  1302     03FF  0862               	movf	_last_value,w
  1303     0400  00E4               	movwf	_curr_value
  1304     0401                     l2787:
  1305                           
  1306                           ;main.c: 561:     {;main.c: 563:         if(is_inc_switch_pressed())
  1307     0401  318F  2735  3183   	fcall	_is_inc_switch_pressed
  1308     0404  3A00               	xorlw	0
  1309     0405  1903               	skipnz
  1310     0406  2C08               	goto	u3441
  1311     0407  2C09               	goto	u3440
  1312     0408                     u3441:
  1313     0408  2C0D               	goto	l2793
  1314     0409                     u3440:
  1315     0409                     l2789:
  1316                           
  1317                           ;main.c: 564:         {;main.c: 565:             get_and_set_increment();
  1318     0409  3185  25E2  3183   	fcall	_get_and_set_increment
  1319     040C                     l2791:
  1320                           
  1321                           ;main.c: 567:         }
  1322     040C  2C19               	goto	l210
  1323     040D                     l2793:
  1324     040D  318F  271C  3183   	fcall	_is_dec_switch_pressed
  1325     0410  3A00               	xorlw	0
  1326     0411  1903               	skipnz
  1327     0412  2C14               	goto	u3451
  1328     0413  2C15               	goto	u3450
  1329     0414                     u3451:
  1330     0414  2C19               	goto	l210
  1331     0415                     u3450:
  1332     0415                     l2795:
  1333                           
  1334                           ;main.c: 569:         {;main.c: 570:             get_and_set_decrement();
  1335     0415  3186  264E  3183   	fcall	_get_and_set_decrement
  1336     0418  2C0C               	goto	l2791
  1337     0419                     l210:
  1338                           
  1339                           ;main.c: 574:         display_digit(curr_value);
  1340     0419  0020               	movlb	0	; select bank0
  1341     041A  0865               	movf	_curr_value+1,w
  1342     041B  00A5               	movwf	display_digit@value+1
  1343     041C  0864               	movf	_curr_value,w
  1344     041D  00A4               	movwf	display_digit@value
  1345     041E  3184  2482  3183   	fcall	_display_digit
  1346     0421                     l2799:
  1347                           
  1348                           ;main.c: 578:             duty_cycle = map_value_to_pwm_resolution(curr_value,max_value)
      +                          ;
  1349     0421  0020               	movlb	0	; select bank0
  1350     0422  0865               	movf	_curr_value+1,w
  1351     0423  00D1               	movwf	map_value_to_pwm_resolution@x+1
  1352     0424  0864               	movf	_curr_value,w
  1353     0425  00D0               	movwf	map_value_to_pwm_resolution@x
  1354     0426  0867               	movf	_max_value+1,w
  1355     0427  00D3               	movwf	map_value_to_pwm_resolution@max_value+1
  1356     0428  0866               	movf	_max_value,w
  1357     0429  00D2               	movwf	map_value_to_pwm_resolution@max_value
  1358     042A  3186  26FF  3183   	fcall	_map_value_to_pwm_resolution
  1359     042D  0020               	movlb	0	; select bank0
  1360     042E  0851               	movf	?_map_value_to_pwm_resolution+1,w
  1361     042F  00EB               	movwf	_duty_cycle+1
  1362     0430  0850               	movf	?_map_value_to_pwm_resolution,w
  1363     0431  00EA               	movwf	_duty_cycle
  1364     0432                     l2801:
  1365                           
  1366                           ;main.c: 579:             load_pwm(duty_cycle);
  1367     0432  086A               	movf	_duty_cycle,w
  1368     0433  318F  274E  3183   	fcall	_load_pwm
  1369     0436                     l2803:
  1370                           
  1371                           ;main.c: 583:         if ( last_value_status == 0x3F && (last_value != curr_value) )
  1372     0436  303F               	movlw	63
  1373     0437  0020               	movlb	0	; select bank0
  1374     0438  066E               	xorwf	_last_value_status,w
  1375     0439  1D03               	btfss	3,2
  1376     043A  2C3C               	goto	u3461
  1377     043B  2C3D               	goto	u3460
  1378     043C                     u3461:
  1379     043C  2C58               	goto	l2815
  1380     043D                     u3460:
  1381     043D                     l2805:
  1382     043D  0865               	movf	_curr_value+1,w
  1383     043E  0663               	xorwf	_last_value+1,w
  1384     043F  1D03               	skipz
  1385     0440  2C43               	goto	u3475
  1386     0441  0864               	movf	_curr_value,w
  1387     0442  0662               	xorwf	_last_value,w
  1388     0443                     u3475:
  1389     0443  1903               	skipnz
  1390     0444  2C46               	goto	u3471
  1391     0445  2C47               	goto	u3470
  1392     0446                     u3471:
  1393     0446  2C58               	goto	l2815
  1394     0447                     u3470:
  1395     0447                     l2807:
  1396                           
  1397                           ;main.c: 584:         {;main.c: 585:             uint8_t last_lower_byte_wr, last_upper_
      +                          byte_wr ;;main.c: 587:             last_lower_byte_wr = curr_value & 0xFF ;
  1398     0447  0864               	movf	_curr_value,w
  1399     0448  00D8               	movwf	main@last_lower_byte_wr
  1400     0449                     l2809:
  1401                           
  1402                           ;main.c: 588:             last_upper_byte_wr = (curr_value >> 8) & 0xFF ;
  1403     0449  0865               	movf	_curr_value+1,w
  1404     044A  00D9               	movwf	main@last_upper_byte_wr
  1405     044B                     l2811:
  1406                           
  1407                           ;main.c: 589:             eeprom_write(4,last_lower_byte_wr);
  1408     044B  0858               	movf	main@last_lower_byte_wr,w
  1409     044C  00F1               	movwf	eeprom_write@value
  1410     044D  3004               	movlw	4
  1411     044E  3187  27CD  3183   	fcall	_eeprom_write
  1412     0451                     l2813:
  1413                           
  1414                           ;main.c: 590:             eeprom_write(5,last_upper_byte_wr);
  1415     0451  0020               	movlb	0	; select bank0
  1416     0452  0859               	movf	main@last_upper_byte_wr,w
  1417     0453  00F1               	movwf	eeprom_write@value
  1418     0454  3005               	movlw	5
  1419     0455  3187  27CD  3183   	fcall	_eeprom_write
  1420     0458                     l2815:
  1421                           
  1422                           ;main.c: 593:         last_value = curr_value;
  1423     0458  0020               	movlb	0	; select bank0
  1424     0459  0865               	movf	_curr_value+1,w
  1425     045A  00E3               	movwf	_last_value+1
  1426     045B  0864               	movf	_curr_value,w
  1427     045C  00E2               	movwf	_last_value
  1428     045D                     l2817:
  1429                           
  1430                           ;main.c: 595:         if (!(is_pwm_loaded) && (last_value_status == 0x3F))
  1431     045D  086C               	movf	_is_pwm_loaded,w
  1432     045E  1D03               	btfss	3,2
  1433     045F  2C61               	goto	u3481
  1434     0460  2C62               	goto	u3480
  1435     0461                     u3481:
  1436     0461  2C7F               	goto	l2825
  1437     0462                     u3480:
  1438     0462                     l2819:
  1439     0462  303F               	movlw	63
  1440     0463  066E               	xorwf	_last_value_status,w
  1441     0464  1D03               	btfss	3,2
  1442     0465  2C67               	goto	u3491
  1443     0466  2C68               	goto	u3490
  1444     0467                     u3491:
  1445     0467  2C7F               	goto	l2825
  1446     0468                     u3490:
  1447     0468                     l2821:
  1448                           
  1449                           ;main.c: 596:         {;main.c: 597:             duty_cycle = map_value_to_pwm_resolutio
      +                          n(curr_value,max_value);
  1450     0468  0865               	movf	_curr_value+1,w
  1451     0469  00D1               	movwf	map_value_to_pwm_resolution@x+1
  1452     046A  0864               	movf	_curr_value,w
  1453     046B  00D0               	movwf	map_value_to_pwm_resolution@x
  1454     046C  0867               	movf	_max_value+1,w
  1455     046D  00D3               	movwf	map_value_to_pwm_resolution@max_value+1
  1456     046E  0866               	movf	_max_value,w
  1457     046F  00D2               	movwf	map_value_to_pwm_resolution@max_value
  1458     0470  3186  26FF  3183   	fcall	_map_value_to_pwm_resolution
  1459     0473  0020               	movlb	0	; select bank0
  1460     0474  0851               	movf	?_map_value_to_pwm_resolution+1,w
  1461     0475  00EB               	movwf	_duty_cycle+1
  1462     0476  0850               	movf	?_map_value_to_pwm_resolution,w
  1463     0477  00EA               	movwf	_duty_cycle
  1464                           
  1465                           ;main.c: 598:             load_pwm(duty_cycle);
  1466     0478  086A               	movf	_duty_cycle,w
  1467     0479  318F  274E  3183   	fcall	_load_pwm
  1468     047C                     l2823:
  1469                           
  1470                           ;main.c: 600:             is_pwm_loaded = 1;
  1471     047C  0020               	movlb	0	; select bank0
  1472     047D  01EC               	clrf	_is_pwm_loaded
  1473     047E  0AEC               	incf	_is_pwm_loaded,f
  1474     047F                     l2825:
  1475     047F  2C01               	goto	l2787
  1476     0480  3180  2863         	ljmp	start
  1477     0482                     __end_of_main:
  1478                           
  1479                           	psect	text1
  1480     06FF                     __ptext1:	
  1481 ;; *************** function _map_value_to_pwm_resolution *****************
  1482 ;; Defined at:
  1483 ;;		line 115 in file "main.c"
  1484 ;; Parameters:    Size  Location     Type
  1485 ;;  x               2   48[BANK0 ] unsigned short 
  1486 ;;  max_value       2   50[BANK0 ] unsigned short 
  1487 ;; Auto vars:     Size  Location     Type
  1488 ;;		None
  1489 ;; Return value:  Size  Location     Type
  1490 ;;                  2   48[BANK0 ] unsigned short 
  1491 ;; Registers used:
  1492 ;;		wreg, status,2, status,0, pclath, cstack
  1493 ;; Tracked objects:
  1494 ;;		On entry : 0/0
  1495 ;;		On exit  : 0/0
  1496 ;;		Unchanged: 0/0
  1497 ;; Data sizes:     COMMON   BANK0   BANK1   BANK2   BANK3   BANK4   BANK5
  1498 ;;      Params:         0       4       0       0       0       0       0
  1499 ;;      Locals:         0       0       0       0       0       0       0
  1500 ;;      Temps:          0       4       0       0       0       0       0
  1501 ;;      Totals:         0       8       0       0       0       0       0
  1502 ;;Total ram usage:        8 bytes
  1503 ;; Hardware stack levels used: 1
  1504 ;; Hardware stack levels required when called: 3
  1505 ;; This function calls:
  1506 ;;		___flmul
  1507 ;;		___fltol
  1508 ;;		___lwdiv
  1509 ;;		___xxtofl
  1510 ;; This function is called by:
  1511 ;;		_main
  1512 ;; This function uses a non-reentrant model
  1513 ;;
  1514                           
  1515     06FF                     _map_value_to_pwm_resolution:	
  1516                           ;psect for function _map_value_to_pwm_resolution
  1517                           
  1518     06FF                     l2749:	
  1519                           ;incstack = 0
  1520                           ; Regs used in _map_value_to_pwm_resolution: [wreg+status,2+status,0+pclath+cstack]
  1521                           
  1522                           
  1523                           ;main.c: 115: uint16_t map_value_to_pwm_resolution(uint16_t x,uint16_t max_value );main.
      +                          c: 116: {;main.c: 117:   return (uint16_t)((x) * (float)(255 / max_value)) ;
  1524     06FF  0020               	movlb	0	; select bank0
  1525     0700  0850               	movf	map_value_to_pwm_resolution@x,w
  1526     0701  00A0               	movwf	___xxtofl@val
  1527     0702  0851               	movf	map_value_to_pwm_resolution@x+1,w
  1528     0703  00A1               	movwf	___xxtofl@val+1
  1529     0704  01A2               	clrf	___xxtofl@val+2
  1530     0705  01A3               	clrf	___xxtofl@val+3
  1531     0706  3000               	movlw	0
  1532     0707  3182  22B2  3186   	fcall	___xxtofl
  1533     070A  0020               	movlb	0	; select bank0
  1534     070B  0823               	movf	?___xxtofl+3,w
  1535     070C  00B5               	movwf	___flmul@a+3
  1536     070D  0822               	movf	?___xxtofl+2,w
  1537     070E  00B4               	movwf	___flmul@a+2
  1538     070F  0821               	movf	?___xxtofl+1,w
  1539     0710  00B3               	movwf	___flmul@a+1
  1540     0711  0820               	movf	?___xxtofl,w
  1541     0712  00B2               	movwf	___flmul@a
  1542     0713  30FF               	movlw	255
  1543     0714  00F3               	movwf	___lwdiv@dividend
  1544     0715  3000               	movlw	0
  1545     0716  00F4               	movwf	___lwdiv@dividend+1
  1546     0717  0853               	movf	map_value_to_pwm_resolution@max_value+1,w
  1547     0718  00F2               	movwf	___lwdiv@divisor+1
  1548     0719  0852               	movf	map_value_to_pwm_resolution@max_value,w
  1549     071A  00F1               	movwf	___lwdiv@divisor
  1550     071B  3187  2791  3186   	fcall	___lwdiv
  1551     071E  0871               	movf	?___lwdiv,w
  1552     071F  0020               	movlb	0	; select bank0
  1553     0720  00D4               	movwf	??_map_value_to_pwm_resolution
  1554     0721  0872               	movf	?___lwdiv+1,w
  1555     0722  00D5               	movwf	??_map_value_to_pwm_resolution+1
  1556     0723  01D6               	clrf	??_map_value_to_pwm_resolution+2
  1557     0724  01D7               	clrf	??_map_value_to_pwm_resolution+3
  1558     0725  0857               	movf	??_map_value_to_pwm_resolution+3,w
  1559     0726  00A3               	movwf	___xxtofl@val+3
  1560     0727  0856               	movf	??_map_value_to_pwm_resolution+2,w
  1561     0728  00A2               	movwf	___xxtofl@val+2
  1562     0729  0855               	movf	??_map_value_to_pwm_resolution+1,w
  1563     072A  00A1               	movwf	___xxtofl@val+1
  1564     072B  0854               	movf	??_map_value_to_pwm_resolution,w
  1565     072C  00A0               	movwf	___xxtofl@val
  1566     072D  3000               	movlw	0
  1567     072E  3182  22B2  3186   	fcall	___xxtofl
  1568     0731  0020               	movlb	0	; select bank0
  1569     0732  0823               	movf	?___xxtofl+3,w
  1570     0733  00B1               	movwf	___flmul@b+3
  1571     0734  0822               	movf	?___xxtofl+2,w
  1572     0735  00B0               	movwf	___flmul@b+2
  1573     0736  0821               	movf	?___xxtofl+1,w
  1574     0737  00AF               	movwf	___flmul@b+1
  1575     0738  0820               	movf	?___xxtofl,w
  1576     0739  00AE               	movwf	___flmul@b
  1577     073A  3180  2077  3186   	fcall	___flmul
  1578     073D  0020               	movlb	0	; select bank0
  1579     073E  0831               	movf	?___flmul+3,w
  1580     073F  00CB               	movwf	___fltol@f1+3
  1581     0740  0830               	movf	?___flmul+2,w
  1582     0741  00CA               	movwf	___fltol@f1+2
  1583     0742  082F               	movf	?___flmul+1,w
  1584     0743  00C9               	movwf	___fltol@f1+1
  1585     0744  082E               	movf	?___flmul,w
  1586     0745  00C8               	movwf	___fltol@f1
  1587     0746  3185  2571  3186   	fcall	___fltol
  1588     0749  0020               	movlb	0	; select bank0
  1589     074A  0849               	movf	?___fltol+1,w
  1590     074B  00D1               	movwf	?_map_value_to_pwm_resolution+1
  1591     074C  0848               	movf	?___fltol,w
  1592     074D  00D0               	movwf	?_map_value_to_pwm_resolution
  1593     074E                     l88:
  1594     074E  0008               	return
  1595     074F                     __end_of_map_value_to_pwm_resolution:
  1596                           
  1597                           	psect	text2
  1598     02B2                     __ptext2:	
  1599 ;; *************** function ___xxtofl *****************
  1600 ;; Defined at:
  1601 ;;		line 10 in file "/Applications/microchip/xc8/v2.46/pic/sources/c99/common/xxtofl.c"
  1602 ;; Parameters:    Size  Location     Type
  1603 ;;  sign            1    wreg     unsigned char 
  1604 ;;  val             4    0[BANK0 ] long 
  1605 ;; Auto vars:     Size  Location     Type
  1606 ;;  sign            1    8[BANK0 ] unsigned char 
  1607 ;;  arg             4   10[BANK0 ] unsigned long 
  1608 ;;  exp             1    9[BANK0 ] unsigned char 
  1609 ;; Return value:  Size  Location     Type
  1610 ;;                  4    0[BANK0 ] unsigned char 
  1611 ;; Registers used:
  1612 ;;		wreg, status,2, status,0
  1613 ;; Tracked objects:
  1614 ;;		On entry : 0/0
  1615 ;;		On exit  : 0/0
  1616 ;;		Unchanged: 0/0
  1617 ;; Data sizes:     COMMON   BANK0   BANK1   BANK2   BANK3   BANK4   BANK5
  1618 ;;      Params:         0       4       0       0       0       0       0
  1619 ;;      Locals:         0       6       0       0       0       0       0
  1620 ;;      Temps:          0       4       0       0       0       0       0
  1621 ;;      Totals:         0      14       0       0       0       0       0
  1622 ;;Total ram usage:       14 bytes
  1623 ;; Hardware stack levels used: 1
  1624 ;; Hardware stack levels required when called: 1
  1625 ;; This function calls:
  1626 ;;		Nothing
  1627 ;; This function is called by:
  1628 ;;		_map_value_to_pwm_resolution
  1629 ;; This function uses a non-reentrant model
  1630 ;;
  1631                           
  1632     02B2                     ___xxtofl:	
  1633                           ;psect for function ___xxtofl
  1634                           
  1635                           
  1636                           ;incstack = 0
  1637                           ; Regs used in ___xxtofl: [wreg+status,2+status,0]
  1638                           ;___xxtofl@sign stored from wreg
  1639     02B2  0020               	movlb	0	; select bank0
  1640     02B3  00A8               	movwf	___xxtofl@sign
  1641     02B4                     l2705:
  1642     02B4  0828               	movf	___xxtofl@sign,w
  1643     02B5  1903               	btfsc	3,2
  1644     02B6  2AB8               	goto	u3291
  1645     02B7  2AB9               	goto	u3290
  1646     02B8                     u3291:
  1647     02B8  2ACD               	goto	l2711
  1648     02B9                     u3290:
  1649     02B9                     l2707:
  1650     02B9  1FA3               	btfss	___xxtofl@val+3,7
  1651     02BA  2ABC               	goto	u3301
  1652     02BB  2ABD               	goto	u3300
  1653     02BC                     u3301:
  1654     02BC  2ACD               	goto	l2711
  1655     02BD                     u3300:
  1656     02BD                     l2709:
  1657     02BD  0920               	comf	___xxtofl@val,w
  1658     02BE  00AA               	movwf	___xxtofl@arg
  1659     02BF  0921               	comf	___xxtofl@val+1,w
  1660     02C0  00AB               	movwf	___xxtofl@arg+1
  1661     02C1  0922               	comf	___xxtofl@val+2,w
  1662     02C2  00AC               	movwf	___xxtofl@arg+2
  1663     02C3  0923               	comf	___xxtofl@val+3,w
  1664     02C4  00AD               	movwf	___xxtofl@arg+3
  1665     02C5  0AAA               	incf	___xxtofl@arg,f
  1666     02C6  1903               	skipnz
  1667     02C7  0AAB               	incf	___xxtofl@arg+1,f
  1668     02C8  1903               	skipnz
  1669     02C9  0AAC               	incf	___xxtofl@arg+2,f
  1670     02CA  1903               	skipnz
  1671     02CB  0AAD               	incf	___xxtofl@arg+3,f
  1672     02CC  2AD5               	goto	l844
  1673     02CD                     l2711:
  1674     02CD  0823               	movf	___xxtofl@val+3,w
  1675     02CE  00AD               	movwf	___xxtofl@arg+3
  1676     02CF  0822               	movf	___xxtofl@val+2,w
  1677     02D0  00AC               	movwf	___xxtofl@arg+2
  1678     02D1  0821               	movf	___xxtofl@val+1,w
  1679     02D2  00AB               	movwf	___xxtofl@arg+1
  1680     02D3  0820               	movf	___xxtofl@val,w
  1681     02D4  00AA               	movwf	___xxtofl@arg
  1682     02D5                     l844:
  1683     02D5  0823               	movf	___xxtofl@val+3,w
  1684     02D6  0422               	iorwf	___xxtofl@val+2,w
  1685     02D7  0421               	iorwf	___xxtofl@val+1,w
  1686     02D8  0420               	iorwf	___xxtofl@val,w
  1687     02D9  1D03               	skipz
  1688     02DA  2ADC               	goto	u3311
  1689     02DB  2ADD               	goto	u3310
  1690     02DC                     u3311:
  1691     02DC  2AE6               	goto	l2717
  1692     02DD                     u3310:
  1693     02DD                     l2713:
  1694     02DD  3000               	movlw	0
  1695     02DE  00A3               	movwf	?___xxtofl+3
  1696     02DF  3000               	movlw	0
  1697     02E0  00A2               	movwf	?___xxtofl+2
  1698     02E1  3000               	movlw	0
  1699     02E2  00A1               	movwf	?___xxtofl+1
  1700     02E3  3000               	movlw	0
  1701     02E4  00A0               	movwf	?___xxtofl
  1702     02E5  2B5C               	goto	l846
  1703     02E6                     l2717:
  1704     02E6  3096               	movlw	150
  1705     02E7  00A9               	movwf	___xxtofl@exp
  1706     02E8  2AF4               	goto	l2721
  1707     02E9                     l2719:
  1708     02E9  3001               	movlw	1
  1709     02EA  00A4               	movwf	??___xxtofl
  1710     02EB  0824               	movf	??___xxtofl,w
  1711     02EC  07A9               	addwf	___xxtofl@exp,f
  1712     02ED  3001               	movlw	1
  1713     02EE                     u3325:
  1714     02EE  36AD               	lsrf	___xxtofl@arg+3,f
  1715     02EF  0CAC               	rrf	___xxtofl@arg+2,f
  1716     02F0  0CAB               	rrf	___xxtofl@arg+1,f
  1717     02F1  0CAA               	rrf	___xxtofl@arg,f
  1718     02F2  0B89               	decfsz	9,f
  1719     02F3  2AEE               	goto	u3325
  1720     02F4                     l2721:
  1721     02F4  30FE               	movlw	254
  1722     02F5  052D               	andwf	___xxtofl@arg+3,w
  1723     02F6  1D03               	btfss	3,2
  1724     02F7  2AF9               	goto	u3331
  1725     02F8  2AFA               	goto	u3330
  1726     02F9                     u3331:
  1727     02F9  2AE9               	goto	l2719
  1728     02FA                     u3330:
  1729     02FA  2B0E               	goto	l850
  1730     02FB                     l2723:
  1731     02FB  3001               	movlw	1
  1732     02FC  00A4               	movwf	??___xxtofl
  1733     02FD  0824               	movf	??___xxtofl,w
  1734     02FE  07A9               	addwf	___xxtofl@exp,f
  1735     02FF                     l2725:
  1736     02FF  3001               	movlw	1
  1737     0300  07AA               	addwf	___xxtofl@arg,f
  1738     0301  3000               	movlw	0
  1739     0302  3DAB               	addwfc	___xxtofl@arg+1,f
  1740     0303  3000               	movlw	0
  1741     0304  3DAC               	addwfc	___xxtofl@arg+2,f
  1742     0305  3000               	movlw	0
  1743     0306  3DAD               	addwfc	___xxtofl@arg+3,f
  1744     0307                     l2727:
  1745     0307  3001               	movlw	1
  1746     0308                     u3345:
  1747     0308  36AD               	lsrf	___xxtofl@arg+3,f
  1748     0309  0CAC               	rrf	___xxtofl@arg+2,f
  1749     030A  0CAB               	rrf	___xxtofl@arg+1,f
  1750     030B  0CAA               	rrf	___xxtofl@arg,f
  1751     030C  0B89               	decfsz	9,f
  1752     030D  2B08               	goto	u3345
  1753     030E                     l850:
  1754     030E  30FF               	movlw	255
  1755     030F  052D               	andwf	___xxtofl@arg+3,w
  1756     0310  1D03               	btfss	3,2
  1757     0311  2B13               	goto	u3351
  1758     0312  2B14               	goto	u3350
  1759     0313                     u3351:
  1760     0313  2AFB               	goto	l2723
  1761     0314                     u3350:
  1762     0314  2B1E               	goto	l2731
  1763     0315                     l2729:
  1764     0315  3001               	movlw	1
  1765     0316  02A9               	subwf	___xxtofl@exp,f
  1766     0317  3001               	movlw	1
  1767     0318                     u3365:
  1768     0318  35AA               	lslf	___xxtofl@arg,f
  1769     0319  0DAB               	rlf	___xxtofl@arg+1,f
  1770     031A  0DAC               	rlf	___xxtofl@arg+2,f
  1771     031B  0DAD               	rlf	___xxtofl@arg+3,f
  1772     031C  0B89               	decfsz	9,f
  1773     031D  2B18               	goto	u3365
  1774     031E                     l2731:
  1775     031E  1BAC               	btfsc	___xxtofl@arg+2,7
  1776     031F  2B21               	goto	u3371
  1777     0320  2B22               	goto	u3370
  1778     0321                     u3371:
  1779     0321  2B28               	goto	l857
  1780     0322                     u3370:
  1781     0322                     l2733:
  1782     0322  3002               	movlw	2
  1783     0323  0229               	subwf	___xxtofl@exp,w
  1784     0324  1803               	skipnc
  1785     0325  2B27               	goto	u3381
  1786     0326  2B28               	goto	u3380
  1787     0327                     u3381:
  1788     0327  2B15               	goto	l2729
  1789     0328                     u3380:
  1790     0328                     l857:
  1791     0328  1829               	btfsc	___xxtofl@exp,0
  1792     0329  2B2B               	goto	u3391
  1793     032A  2B2C               	goto	u3390
  1794     032B                     u3391:
  1795     032B  2B34               	goto	l858
  1796     032C                     u3390:
  1797     032C                     l2735:
  1798     032C  30FF               	movlw	255
  1799     032D  05AA               	andwf	___xxtofl@arg,f
  1800     032E  30FF               	movlw	255
  1801     032F  05AB               	andwf	___xxtofl@arg+1,f
  1802     0330  307F               	movlw	127
  1803     0331  05AC               	andwf	___xxtofl@arg+2,f
  1804     0332  30FF               	movlw	255
  1805     0333  05AD               	andwf	___xxtofl@arg+3,f
  1806     0334                     l858:
  1807     0334  1003               	clrc
  1808     0335  0CA9               	rrf	___xxtofl@exp,f
  1809     0336                     l2737:
  1810     0336  0829               	movf	___xxtofl@exp,w
  1811     0337  00A4               	movwf	??___xxtofl
  1812     0338  01A5               	clrf	??___xxtofl+1
  1813     0339  01A6               	clrf	??___xxtofl+2
  1814     033A  01A7               	clrf	??___xxtofl+3
  1815     033B  3018               	movlw	24
  1816     033C                     u3405:
  1817     033C  35A4               	lslf	??___xxtofl,f
  1818     033D  0DA5               	rlf	??___xxtofl+1,f
  1819     033E  0DA6               	rlf	??___xxtofl+2,f
  1820     033F  0DA7               	rlf	??___xxtofl+3,f
  1821     0340                     u3400:
  1822     0340  0B89               	decfsz	9,f
  1823     0341  2B3C               	goto	u3405
  1824     0342  0824               	movf	??___xxtofl,w
  1825     0343  04AA               	iorwf	___xxtofl@arg,f
  1826     0344  0825               	movf	??___xxtofl+1,w
  1827     0345  04AB               	iorwf	___xxtofl@arg+1,f
  1828     0346  0826               	movf	??___xxtofl+2,w
  1829     0347  04AC               	iorwf	___xxtofl@arg+2,f
  1830     0348  0827               	movf	??___xxtofl+3,w
  1831     0349  04AD               	iorwf	___xxtofl@arg+3,f
  1832     034A                     l2739:
  1833     034A  0828               	movf	___xxtofl@sign,w
  1834     034B  1903               	btfsc	3,2
  1835     034C  2B4E               	goto	u3411
  1836     034D  2B4F               	goto	u3410
  1837     034E                     u3411:
  1838     034E  2B54               	goto	l2745
  1839     034F                     u3410:
  1840     034F                     l2741:
  1841     034F  1FA3               	btfss	___xxtofl@val+3,7
  1842     0350  2B52               	goto	u3421
  1843     0351  2B53               	goto	u3420
  1844     0352                     u3421:
  1845     0352  2B54               	goto	l2745
  1846     0353                     u3420:
  1847     0353                     l2743:
  1848     0353  17AD               	bsf	___xxtofl@arg+3,7
  1849     0354                     l2745:
  1850     0354  082D               	movf	___xxtofl@arg+3,w
  1851     0355  00A3               	movwf	?___xxtofl+3
  1852     0356  082C               	movf	___xxtofl@arg+2,w
  1853     0357  00A2               	movwf	?___xxtofl+2
  1854     0358  082B               	movf	___xxtofl@arg+1,w
  1855     0359  00A1               	movwf	?___xxtofl+1
  1856     035A  082A               	movf	___xxtofl@arg,w
  1857     035B  00A0               	movwf	?___xxtofl
  1858     035C                     l846:
  1859     035C  0008               	return
  1860     035D                     __end_of___xxtofl:
  1861                           
  1862                           	psect	text3
  1863     0571                     __ptext3:	
  1864 ;; *************** function ___fltol *****************
  1865 ;; Defined at:
  1866 ;;		line 43 in file "/Applications/microchip/xc8/v2.46/pic/sources/c99/common/fltol.c"
  1867 ;; Parameters:    Size  Location     Type
  1868 ;;  f1              4   40[BANK0 ] unsigned char 
  1869 ;; Auto vars:     Size  Location     Type
  1870 ;;  exp1            1   11[COMMON] unsigned char 
  1871 ;;  sign1           1   10[COMMON] unsigned char 
  1872 ;; Return value:  Size  Location     Type
  1873 ;;                  4   40[BANK0 ] long 
  1874 ;; Registers used:
  1875 ;;		wreg, status,2, status,0
  1876 ;; Tracked objects:
  1877 ;;		On entry : 0/0
  1878 ;;		On exit  : 0/0
  1879 ;;		Unchanged: 0/0
  1880 ;; Data sizes:     COMMON   BANK0   BANK1   BANK2   BANK3   BANK4   BANK5
  1881 ;;      Params:         0       4       0       0       0       0       0
  1882 ;;      Locals:         2       0       0       0       0       0       0
  1883 ;;      Temps:          0       4       0       0       0       0       0
  1884 ;;      Totals:         2       8       0       0       0       0       0
  1885 ;;Total ram usage:       10 bytes
  1886 ;; Hardware stack levels used: 1
  1887 ;; Hardware stack levels required when called: 1
  1888 ;; This function calls:
  1889 ;;		Nothing
  1890 ;; This function is called by:
  1891 ;;		_map_value_to_pwm_resolution
  1892 ;; This function uses a non-reentrant model
  1893 ;;
  1894                           
  1895     0571                     ___fltol:	
  1896                           ;psect for function ___fltol
  1897                           
  1898     0571                     l2669:	
  1899                           ;incstack = 0
  1900                           ; Regs used in ___fltol: [wreg+status,2+status,0]
  1901                           
  1902     0571  1003               	clrc
  1903     0572  0020               	movlb	0	; select bank0
  1904     0573  0D4A               	rlf	___fltol@f1+2,w
  1905     0574  0D4B               	rlf	___fltol@f1+3,w
  1906     0575  00FB               	movwf	___fltol@exp1
  1907     0576  087B               	movf	___fltol@exp1,w
  1908     0577  1D03               	btfss	3,2
  1909     0578  2D7A               	goto	u3191
  1910     0579  2D7B               	goto	u3190
  1911     057A                     u3191:
  1912     057A  2D84               	goto	l2675
  1913     057B                     u3190:
  1914     057B                     l2671:
  1915     057B  3000               	movlw	0
  1916     057C  00CB               	movwf	?___fltol+3
  1917     057D  3000               	movlw	0
  1918     057E  00CA               	movwf	?___fltol+2
  1919     057F  3000               	movlw	0
  1920     0580  00C9               	movwf	?___fltol+1
  1921     0581  3000               	movlw	0
  1922     0582  00C8               	movwf	?___fltol
  1923     0583  2DE1               	goto	l597
  1924     0584                     l2675:
  1925     0584  0848               	movf	___fltol@f1,w
  1926     0585  00CC               	movwf	??___fltol
  1927     0586  0849               	movf	___fltol@f1+1,w
  1928     0587  00CD               	movwf	??___fltol+1
  1929     0588  084A               	movf	___fltol@f1+2,w
  1930     0589  00CE               	movwf	??___fltol+2
  1931     058A  084B               	movf	___fltol@f1+3,w
  1932     058B  00CF               	movwf	??___fltol+3
  1933     058C  301F               	movlw	31
  1934     058D                     u3205:
  1935     058D  36CF               	lsrf	??___fltol+3,f
  1936     058E  0CCE               	rrf	??___fltol+2,f
  1937     058F  0CCD               	rrf	??___fltol+1,f
  1938     0590  0CCC               	rrf	??___fltol,f
  1939     0591                     u3200:
  1940     0591  0B89               	decfsz	9,f
  1941     0592  2D8D               	goto	u3205
  1942     0593  084C               	movf	??___fltol,w
  1943     0594  00FA               	movwf	___fltol@sign1
  1944     0595                     l2677:
  1945     0595  17CA               	bsf	___fltol@f1+2,7
  1946     0596                     l2679:
  1947     0596  30FF               	movlw	255
  1948     0597  05C8               	andwf	___fltol@f1,f
  1949     0598  30FF               	movlw	255
  1950     0599  05C9               	andwf	___fltol@f1+1,f
  1951     059A  30FF               	movlw	255
  1952     059B  05CA               	andwf	___fltol@f1+2,f
  1953     059C  3000               	movlw	0
  1954     059D  05CB               	andwf	___fltol@f1+3,f
  1955     059E                     l2681:
  1956     059E  3096               	movlw	150
  1957     059F  02FB               	subwf	___fltol@exp1,f
  1958     05A0                     l2683:
  1959     05A0  1FFB               	btfss	___fltol@exp1,7
  1960     05A1  2DA3               	goto	u3211
  1961     05A2  2DA4               	goto	u3210
  1962     05A3                     u3211:
  1963     05A3  2DBC               	goto	l2693
  1964     05A4                     u3210:
  1965     05A4                     l2685:
  1966     05A4  087B               	movf	___fltol@exp1,w
  1967     05A5  3A80               	xorlw	128
  1968     05A6  3E97               	addlw	151
  1969     05A7  1803               	skipnc
  1970     05A8  2DAA               	goto	u3221
  1971     05A9  2DAB               	goto	u3220
  1972     05AA                     u3221:
  1973     05AA  2DAC               	goto	l2691
  1974     05AB                     u3220:
  1975     05AB  2D7B               	goto	l2671
  1976     05AC                     l2691:
  1977     05AC  3001               	movlw	1
  1978     05AD                     u3235:
  1979     05AD  36CB               	lsrf	___fltol@f1+3,f
  1980     05AE  0CCA               	rrf	___fltol@f1+2,f
  1981     05AF  0CC9               	rrf	___fltol@f1+1,f
  1982     05B0  0CC8               	rrf	___fltol@f1,f
  1983     05B1  0B89               	decfsz	9,f
  1984     05B2  2DAD               	goto	u3235
  1985     05B3  3001               	movlw	1
  1986     05B4  00CC               	movwf	??___fltol
  1987     05B5  084C               	movf	??___fltol,w
  1988     05B6  07FB               	addwf	___fltol@exp1,f
  1989     05B7  1D03               	btfss	3,2
  1990     05B8  2DBA               	goto	u3241
  1991     05B9  2DBB               	goto	u3240
  1992     05BA                     u3241:
  1993     05BA  2DAC               	goto	l2691
  1994     05BB                     u3240:
  1995     05BB  2DD1               	goto	l2701
  1996     05BC                     l2693:
  1997     05BC  3020               	movlw	32
  1998     05BD  027B               	subwf	___fltol@exp1,w
  1999     05BE  1C03               	skipc
  2000     05BF  2DC1               	goto	u3251
  2001     05C0  2DC2               	goto	u3250
  2002     05C1                     u3251:
  2003     05C1  2DCC               	goto	l604
  2004     05C2                     u3250:
  2005     05C2  2D7B               	goto	l2671
  2006     05C3                     l2699:
  2007     05C3  3001               	movlw	1
  2008     05C4                     u3265:
  2009     05C4  35C8               	lslf	___fltol@f1,f
  2010     05C5  0DC9               	rlf	___fltol@f1+1,f
  2011     05C6  0DCA               	rlf	___fltol@f1+2,f
  2012     05C7  0DCB               	rlf	___fltol@f1+3,f
  2013     05C8  0B89               	decfsz	9,f
  2014     05C9  2DC4               	goto	u3265
  2015     05CA  3001               	movlw	1
  2016     05CB  02FB               	subwf	___fltol@exp1,f
  2017     05CC                     l604:
  2018     05CC  087B               	movf	___fltol@exp1,w
  2019     05CD  1D03               	btfss	3,2
  2020     05CE  2DD0               	goto	u3271
  2021     05CF  2DD1               	goto	u3270
  2022     05D0                     u3271:
  2023     05D0  2DC3               	goto	l2699
  2024     05D1                     u3270:
  2025     05D1                     l2701:
  2026     05D1  087A               	movf	___fltol@sign1,w
  2027     05D2  1903               	btfsc	3,2
  2028     05D3  2DD5               	goto	u3281
  2029     05D4  2DD6               	goto	u3280
  2030     05D5                     u3281:
  2031     05D5  2DE1               	goto	l607
  2032     05D6                     u3280:
  2033     05D6                     l2703:
  2034     05D6  09C8               	comf	___fltol@f1,f
  2035     05D7  09C9               	comf	___fltol@f1+1,f
  2036     05D8  09CA               	comf	___fltol@f1+2,f
  2037     05D9  09CB               	comf	___fltol@f1+3,f
  2038     05DA  0AC8               	incf	___fltol@f1,f
  2039     05DB  1903               	skipnz
  2040     05DC  0AC9               	incf	___fltol@f1+1,f
  2041     05DD  1903               	skipnz
  2042     05DE  0ACA               	incf	___fltol@f1+2,f
  2043     05DF  1903               	skipnz
  2044     05E0  0ACB               	incf	___fltol@f1+3,f
  2045     05E1                     l607:
  2046     05E1                     l597:
  2047     05E1  0008               	return
  2048     05E2                     __end_of___fltol:
  2049                           
  2050                           	psect	text4
  2051     0077                     __ptext4:	
  2052 ;; *************** function ___flmul *****************
  2053 ;; Defined at:
  2054 ;;		line 8 in file "/Applications/microchip/xc8/v2.46/pic/sources/c99/common/sprcmul.c"
  2055 ;; Parameters:    Size  Location     Type
  2056 ;;  b               4   14[BANK0 ] long 
  2057 ;;  a               4   18[BANK0 ] long 
  2058 ;; Auto vars:     Size  Location     Type
  2059 ;;  prod            4   34[BANK0 ] struct .
  2060 ;;  grs             4   28[BANK0 ] unsigned long 
  2061 ;;  temp            2   38[BANK0 ] struct .
  2062 ;;  bexp            1   33[BANK0 ] unsigned char 
  2063 ;;  aexp            1   32[BANK0 ] unsigned char 
  2064 ;;  sign            1   27[BANK0 ] unsigned char 
  2065 ;; Return value:  Size  Location     Type
  2066 ;;                  4   14[BANK0 ] unsigned char 
  2067 ;; Registers used:
  2068 ;;		wreg, status,2, status,0, pclath, cstack
  2069 ;; Tracked objects:
  2070 ;;		On entry : 0/0
  2071 ;;		On exit  : 0/0
  2072 ;;		Unchanged: 0/0
  2073 ;; Data sizes:     COMMON   BANK0   BANK1   BANK2   BANK3   BANK4   BANK5
  2074 ;;      Params:         0       8       0       0       0       0       0
  2075 ;;      Locals:         0      13       0       0       0       0       0
  2076 ;;      Temps:          0       5       0       0       0       0       0
  2077 ;;      Totals:         0      26       0       0       0       0       0
  2078 ;;Total ram usage:       26 bytes
  2079 ;; Hardware stack levels used: 1
  2080 ;; Hardware stack levels required when called: 2
  2081 ;; This function calls:
  2082 ;;		__Umul8_16
  2083 ;; This function is called by:
  2084 ;;		_map_value_to_pwm_resolution
  2085 ;; This function uses a non-reentrant model
  2086 ;;
  2087                           
  2088     0077                     ___flmul:	
  2089                           ;psect for function ___flmul
  2090                           
  2091     0077                     l1993:	
  2092                           ;incstack = 0
  2093                           ; Regs used in ___flmul: [wreg+status,2+status,0+pclath+cstack]
  2094                           
  2095     0077  0020               	movlb	0	; select bank0
  2096     0078  0831               	movf	___flmul@b+3,w
  2097     0079  3980               	andlw	128
  2098     007A  00BB               	movwf	___flmul@sign
  2099     007B                     l1995:
  2100     007B  3531               	lslf	___flmul@b+3,w
  2101     007C  00C1               	movwf	___flmul@bexp
  2102     007D                     l1997:
  2103     007D  1FB0               	btfss	___flmul@b+2,7
  2104     007E  2880               	goto	u2041
  2105     007F  2881               	goto	u2040
  2106     0080                     u2041:
  2107     0080  2882               	goto	l2001
  2108     0081                     u2040:
  2109     0081                     l1999:
  2110     0081  1441               	bsf	___flmul@bexp,0
  2111     0082                     l2001:
  2112     0082  0841               	movf	___flmul@bexp,w
  2113     0083  1903               	btfsc	3,2
  2114     0084  2886               	goto	u2051
  2115     0085  2887               	goto	u2050
  2116     0086                     u2051:
  2117     0086  2896               	goto	l2009
  2118     0087                     u2050:
  2119     0087                     l2003:
  2120     0087  0A41               	incf	___flmul@bexp,w
  2121     0088  1D03               	btfss	3,2
  2122     0089  288B               	goto	u2061
  2123     008A  288C               	goto	u2060
  2124     008B                     u2061:
  2125     008B  2894               	goto	l2007
  2126     008C                     u2060:
  2127     008C                     l2005:
  2128     008C  3000               	movlw	0
  2129     008D  00B1               	movwf	___flmul@b+3
  2130     008E  3000               	movlw	0
  2131     008F  00B0               	movwf	___flmul@b+2
  2132     0090  3000               	movlw	0
  2133     0091  00AF               	movwf	___flmul@b+1
  2134     0092  3000               	movlw	0
  2135     0093  00AE               	movwf	___flmul@b
  2136     0094                     l2007:
  2137     0094  17B0               	bsf	___flmul@b+2,7
  2138     0095  289E               	goto	l2011
  2139     0096                     l2009:
  2140     0096  3000               	movlw	0
  2141     0097  00B1               	movwf	___flmul@b+3
  2142     0098  3000               	movlw	0
  2143     0099  00B0               	movwf	___flmul@b+2
  2144     009A  3000               	movlw	0
  2145     009B  00AF               	movwf	___flmul@b+1
  2146     009C  3000               	movlw	0
  2147     009D  00AE               	movwf	___flmul@b
  2148     009E                     l2011:
  2149     009E  0835               	movf	___flmul@a+3,w
  2150     009F  3980               	andlw	128
  2151     00A0  00B6               	movwf	??___flmul
  2152     00A1  0836               	movf	??___flmul,w
  2153     00A2  06BB               	xorwf	___flmul@sign,f
  2154     00A3                     l2013:
  2155     00A3  3535               	lslf	___flmul@a+3,w
  2156     00A4  00C0               	movwf	___flmul@aexp
  2157     00A5                     l2015:
  2158     00A5  1FB4               	btfss	___flmul@a+2,7
  2159     00A6  28A8               	goto	u2071
  2160     00A7  28A9               	goto	u2070
  2161     00A8                     u2071:
  2162     00A8  28AA               	goto	l2019
  2163     00A9                     u2070:
  2164     00A9                     l2017:
  2165     00A9  1440               	bsf	___flmul@aexp,0
  2166     00AA                     l2019:
  2167     00AA  0840               	movf	___flmul@aexp,w
  2168     00AB  1903               	btfsc	3,2
  2169     00AC  28AE               	goto	u2081
  2170     00AD  28AF               	goto	u2080
  2171     00AE                     u2081:
  2172     00AE  28BE               	goto	l2027
  2173     00AF                     u2080:
  2174     00AF                     l2021:
  2175     00AF  0A40               	incf	___flmul@aexp,w
  2176     00B0  1D03               	btfss	3,2
  2177     00B1  28B3               	goto	u2091
  2178     00B2  28B4               	goto	u2090
  2179     00B3                     u2091:
  2180     00B3  28BC               	goto	l2025
  2181     00B4                     u2090:
  2182     00B4                     l2023:
  2183     00B4  3000               	movlw	0
  2184     00B5  00B5               	movwf	___flmul@a+3
  2185     00B6  3000               	movlw	0
  2186     00B7  00B4               	movwf	___flmul@a+2
  2187     00B8  3000               	movlw	0
  2188     00B9  00B3               	movwf	___flmul@a+1
  2189     00BA  3000               	movlw	0
  2190     00BB  00B2               	movwf	___flmul@a
  2191     00BC                     l2025:
  2192     00BC  17B4               	bsf	___flmul@a+2,7
  2193     00BD  28C6               	goto	l2029
  2194     00BE                     l2027:
  2195     00BE  3000               	movlw	0
  2196     00BF  00B5               	movwf	___flmul@a+3
  2197     00C0  3000               	movlw	0
  2198     00C1  00B4               	movwf	___flmul@a+2
  2199     00C2  3000               	movlw	0
  2200     00C3  00B3               	movwf	___flmul@a+1
  2201     00C4  3000               	movlw	0
  2202     00C5  00B2               	movwf	___flmul@a
  2203     00C6                     l2029:
  2204     00C6  0840               	movf	___flmul@aexp,w
  2205     00C7  1903               	btfsc	3,2
  2206     00C8  28CA               	goto	u2101
  2207     00C9  28CB               	goto	u2100
  2208     00CA                     u2101:
  2209     00CA  28D0               	goto	l2033
  2210     00CB                     u2100:
  2211     00CB                     l2031:
  2212     00CB  0841               	movf	___flmul@bexp,w
  2213     00CC  1D03               	btfss	3,2
  2214     00CD  28CF               	goto	u2111
  2215     00CE  28D0               	goto	u2110
  2216     00CF                     u2111:
  2217     00CF  28D9               	goto	l2037
  2218     00D0                     u2110:
  2219     00D0                     l2033:
  2220     00D0  3000               	movlw	0
  2221     00D1  00B1               	movwf	?___flmul+3
  2222     00D2  3000               	movlw	0
  2223     00D3  00B0               	movwf	?___flmul+2
  2224     00D4  3000               	movlw	0
  2225     00D5  00AF               	movwf	?___flmul+1
  2226     00D6  3000               	movlw	0
  2227     00D7  00AE               	movwf	?___flmul
  2228     00D8  2AB1               	goto	l800
  2229     00D9                     l2037:
  2230     00D9  082E               	movf	___flmul@b,w
  2231     00DA  00F1               	movwf	__Umul8_16@multiplicand
  2232     00DB  0834               	movf	___flmul@a+2,w
  2233     00DC  318F  276F  3180   	fcall	__Umul8_16
  2234     00DF  0872               	movf	?__Umul8_16+1,w
  2235     00E0  0020               	movlb	0	; select bank0
  2236     00E1  00C7               	movwf	___flmul@temp+1
  2237     00E2  0871               	movf	?__Umul8_16,w
  2238     00E3  00C6               	movwf	___flmul@temp
  2239     00E4                     l2039:
  2240     00E4  0846               	movf	___flmul@temp,w
  2241     00E5  00B6               	movwf	??___flmul
  2242     00E6  01B7               	clrf	??___flmul+1
  2243     00E7  01B8               	clrf	??___flmul+2
  2244     00E8  01B9               	clrf	??___flmul+3
  2245     00E9  0839               	movf	??___flmul+3,w
  2246     00EA  00BF               	movwf	___flmul@grs+3
  2247     00EB  0838               	movf	??___flmul+2,w
  2248     00EC  00BE               	movwf	___flmul@grs+2
  2249     00ED  0837               	movf	??___flmul+1,w
  2250     00EE  00BD               	movwf	___flmul@grs+1
  2251     00EF  0836               	movf	??___flmul,w
  2252     00F0  00BC               	movwf	___flmul@grs
  2253     00F1                     l2041:
  2254     00F1  0847               	movf	___flmul@temp+1,w
  2255     00F2  00B6               	movwf	??___flmul
  2256     00F3  01B7               	clrf	??___flmul+1
  2257     00F4  01B8               	clrf	??___flmul+2
  2258     00F5  01B9               	clrf	??___flmul+3
  2259     00F6  0839               	movf	??___flmul+3,w
  2260     00F7  00C5               	movwf	___flmul@prod+3
  2261     00F8  0838               	movf	??___flmul+2,w
  2262     00F9  00C4               	movwf	___flmul@prod+2
  2263     00FA  0837               	movf	??___flmul+1,w
  2264     00FB  00C3               	movwf	___flmul@prod+1
  2265     00FC  0836               	movf	??___flmul,w
  2266     00FD  00C2               	movwf	___flmul@prod
  2267     00FE  082F               	movf	___flmul@b+1,w
  2268     00FF  00F1               	movwf	__Umul8_16@multiplicand
  2269     0100  0833               	movf	___flmul@a+1,w
  2270     0101  318F  276F  3180   	fcall	__Umul8_16
  2271     0104  0872               	movf	?__Umul8_16+1,w
  2272     0105  0020               	movlb	0	; select bank0
  2273     0106  00C7               	movwf	___flmul@temp+1
  2274     0107  0871               	movf	?__Umul8_16,w
  2275     0108  00C6               	movwf	___flmul@temp
  2276     0109                     l2043:
  2277     0109  0846               	movf	___flmul@temp,w
  2278     010A  00B6               	movwf	??___flmul
  2279     010B  01B7               	clrf	??___flmul+1
  2280     010C  01B8               	clrf	??___flmul+2
  2281     010D  01B9               	clrf	??___flmul+3
  2282     010E  0836               	movf	??___flmul,w
  2283     010F  07BC               	addwf	___flmul@grs,f
  2284     0110  0837               	movf	??___flmul+1,w
  2285     0111  3DBD               	addwfc	___flmul@grs+1,f
  2286     0112  0838               	movf	??___flmul+2,w
  2287     0113  3DBE               	addwfc	___flmul@grs+2,f
  2288     0114  0839               	movf	??___flmul+3,w
  2289     0115  3DBF               	addwfc	___flmul@grs+3,f
  2290     0116                     l2045:
  2291     0116  0847               	movf	___flmul@temp+1,w
  2292     0117  00B6               	movwf	??___flmul
  2293     0118  01B7               	clrf	??___flmul+1
  2294     0119  01B8               	clrf	??___flmul+2
  2295     011A  01B9               	clrf	??___flmul+3
  2296     011B  0836               	movf	??___flmul,w
  2297     011C  07C2               	addwf	___flmul@prod,f
  2298     011D  0837               	movf	??___flmul+1,w
  2299     011E  3DC3               	addwfc	___flmul@prod+1,f
  2300     011F  0838               	movf	??___flmul+2,w
  2301     0120  3DC4               	addwfc	___flmul@prod+2,f
  2302     0121  0839               	movf	??___flmul+3,w
  2303     0122  3DC5               	addwfc	___flmul@prod+3,f
  2304     0123  0830               	movf	___flmul@b+2,w
  2305     0124  00F1               	movwf	__Umul8_16@multiplicand
  2306     0125  0832               	movf	___flmul@a,w
  2307     0126  318F  276F  3180   	fcall	__Umul8_16
  2308     0129  0872               	movf	?__Umul8_16+1,w
  2309     012A  0020               	movlb	0	; select bank0
  2310     012B  00C7               	movwf	___flmul@temp+1
  2311     012C  0871               	movf	?__Umul8_16,w
  2312     012D  00C6               	movwf	___flmul@temp
  2313     012E                     l2047:
  2314     012E  0846               	movf	___flmul@temp,w
  2315     012F  00B6               	movwf	??___flmul
  2316     0130  01B7               	clrf	??___flmul+1
  2317     0131  01B8               	clrf	??___flmul+2
  2318     0132  01B9               	clrf	??___flmul+3
  2319     0133  0836               	movf	??___flmul,w
  2320     0134  07BC               	addwf	___flmul@grs,f
  2321     0135  0837               	movf	??___flmul+1,w
  2322     0136  3DBD               	addwfc	___flmul@grs+1,f
  2323     0137  0838               	movf	??___flmul+2,w
  2324     0138  3DBE               	addwfc	___flmul@grs+2,f
  2325     0139  0839               	movf	??___flmul+3,w
  2326     013A  3DBF               	addwfc	___flmul@grs+3,f
  2327     013B                     l2049:
  2328     013B  0847               	movf	___flmul@temp+1,w
  2329     013C  00B6               	movwf	??___flmul
  2330     013D  01B7               	clrf	??___flmul+1
  2331     013E  01B8               	clrf	??___flmul+2
  2332     013F  01B9               	clrf	??___flmul+3
  2333     0140  0836               	movf	??___flmul,w
  2334     0141  07C2               	addwf	___flmul@prod,f
  2335     0142  0837               	movf	??___flmul+1,w
  2336     0143  3DC3               	addwfc	___flmul@prod+1,f
  2337     0144  0838               	movf	??___flmul+2,w
  2338     0145  3DC4               	addwfc	___flmul@prod+2,f
  2339     0146  0839               	movf	??___flmul+3,w
  2340     0147  3DC5               	addwfc	___flmul@prod+3,f
  2341     0148                     l2051:
  2342     0148  3008               	movlw	8
  2343     0149                     u2125:
  2344     0149  35BC               	lslf	___flmul@grs,f
  2345     014A  0DBD               	rlf	___flmul@grs+1,f
  2346     014B  0DBE               	rlf	___flmul@grs+2,f
  2347     014C  0DBF               	rlf	___flmul@grs+3,f
  2348     014D  0B89               	decfsz	9,f
  2349     014E  2949               	goto	u2125
  2350     014F                     l2053:
  2351     014F  082F               	movf	___flmul@b+1,w
  2352     0150  00F1               	movwf	__Umul8_16@multiplicand
  2353     0151  0832               	movf	___flmul@a,w
  2354     0152  318F  276F  3180   	fcall	__Umul8_16
  2355     0155  0872               	movf	?__Umul8_16+1,w
  2356     0156  0020               	movlb	0	; select bank0
  2357     0157  00C7               	movwf	___flmul@temp+1
  2358     0158  0871               	movf	?__Umul8_16,w
  2359     0159  00C6               	movwf	___flmul@temp
  2360     015A                     l2055:
  2361     015A  0846               	movf	___flmul@temp,w
  2362     015B  07BC               	addwf	___flmul@grs,f
  2363     015C  0847               	movf	___flmul@temp+1,w
  2364     015D  3DBD               	addwfc	___flmul@grs+1,f
  2365     015E  3000               	movlw	0
  2366     015F  3DBE               	addwfc	___flmul@grs+2,f
  2367     0160  3DBF               	addwfc	___flmul@grs+3,f
  2368     0161                     l2057:
  2369     0161  082E               	movf	___flmul@b,w
  2370     0162  00F1               	movwf	__Umul8_16@multiplicand
  2371     0163  0833               	movf	___flmul@a+1,w
  2372     0164  318F  276F  3180   	fcall	__Umul8_16
  2373     0167  0872               	movf	?__Umul8_16+1,w
  2374     0168  0020               	movlb	0	; select bank0
  2375     0169  00C7               	movwf	___flmul@temp+1
  2376     016A  0871               	movf	?__Umul8_16,w
  2377     016B  00C6               	movwf	___flmul@temp
  2378     016C                     l2059:
  2379     016C  0846               	movf	___flmul@temp,w
  2380     016D  07BC               	addwf	___flmul@grs,f
  2381     016E  0847               	movf	___flmul@temp+1,w
  2382     016F  3DBD               	addwfc	___flmul@grs+1,f
  2383     0170  3000               	movlw	0
  2384     0171  3DBE               	addwfc	___flmul@grs+2,f
  2385     0172  3DBF               	addwfc	___flmul@grs+3,f
  2386     0173                     l2061:
  2387     0173  3008               	movlw	8
  2388     0174                     u2135:
  2389     0174  35BC               	lslf	___flmul@grs,f
  2390     0175  0DBD               	rlf	___flmul@grs+1,f
  2391     0176  0DBE               	rlf	___flmul@grs+2,f
  2392     0177  0DBF               	rlf	___flmul@grs+3,f
  2393     0178  0B89               	decfsz	9,f
  2394     0179  2974               	goto	u2135
  2395     017A  082E               	movf	___flmul@b,w
  2396     017B  00F1               	movwf	__Umul8_16@multiplicand
  2397     017C  0832               	movf	___flmul@a,w
  2398     017D  318F  276F  3180   	fcall	__Umul8_16
  2399     0180  0872               	movf	?__Umul8_16+1,w
  2400     0181  0020               	movlb	0	; select bank0
  2401     0182  00C7               	movwf	___flmul@temp+1
  2402     0183  0871               	movf	?__Umul8_16,w
  2403     0184  00C6               	movwf	___flmul@temp
  2404     0185                     l2063:
  2405     0185  0846               	movf	___flmul@temp,w
  2406     0186  07BC               	addwf	___flmul@grs,f
  2407     0187  0847               	movf	___flmul@temp+1,w
  2408     0188  3DBD               	addwfc	___flmul@grs+1,f
  2409     0189  3000               	movlw	0
  2410     018A  3DBE               	addwfc	___flmul@grs+2,f
  2411     018B  3DBF               	addwfc	___flmul@grs+3,f
  2412     018C                     l2065:
  2413     018C  082F               	movf	___flmul@b+1,w
  2414     018D  00F1               	movwf	__Umul8_16@multiplicand
  2415     018E  0834               	movf	___flmul@a+2,w
  2416     018F  318F  276F  3180   	fcall	__Umul8_16
  2417     0192  0872               	movf	?__Umul8_16+1,w
  2418     0193  0020               	movlb	0	; select bank0
  2419     0194  00C7               	movwf	___flmul@temp+1
  2420     0195  0871               	movf	?__Umul8_16,w
  2421     0196  00C6               	movwf	___flmul@temp
  2422     0197  0846               	movf	___flmul@temp,w
  2423     0198  07C2               	addwf	___flmul@prod,f
  2424     0199  0847               	movf	___flmul@temp+1,w
  2425     019A  3DC3               	addwfc	___flmul@prod+1,f
  2426     019B  3000               	movlw	0
  2427     019C  3DC4               	addwfc	___flmul@prod+2,f
  2428     019D  3DC5               	addwfc	___flmul@prod+3,f
  2429     019E                     l2067:
  2430     019E  0830               	movf	___flmul@b+2,w
  2431     019F  00F1               	movwf	__Umul8_16@multiplicand
  2432     01A0  0833               	movf	___flmul@a+1,w
  2433     01A1  318F  276F  3180   	fcall	__Umul8_16
  2434     01A4  0872               	movf	?__Umul8_16+1,w
  2435     01A5  0020               	movlb	0	; select bank0
  2436     01A6  00C7               	movwf	___flmul@temp+1
  2437     01A7  0871               	movf	?__Umul8_16,w
  2438     01A8  00C6               	movwf	___flmul@temp
  2439     01A9                     l2069:
  2440     01A9  0846               	movf	___flmul@temp,w
  2441     01AA  07C2               	addwf	___flmul@prod,f
  2442     01AB  0847               	movf	___flmul@temp+1,w
  2443     01AC  3DC3               	addwfc	___flmul@prod+1,f
  2444     01AD  3000               	movlw	0
  2445     01AE  3DC4               	addwfc	___flmul@prod+2,f
  2446     01AF  3DC5               	addwfc	___flmul@prod+3,f
  2447     01B0  0830               	movf	___flmul@b+2,w
  2448     01B1  00F1               	movwf	__Umul8_16@multiplicand
  2449     01B2  0834               	movf	___flmul@a+2,w
  2450     01B3  318F  276F  3180   	fcall	__Umul8_16
  2451     01B6  0872               	movf	?__Umul8_16+1,w
  2452     01B7  0020               	movlb	0	; select bank0
  2453     01B8  00C7               	movwf	___flmul@temp+1
  2454     01B9  0871               	movf	?__Umul8_16,w
  2455     01BA  00C6               	movwf	___flmul@temp
  2456     01BB                     l2071:
  2457     01BB  0846               	movf	___flmul@temp,w
  2458     01BC  00B6               	movwf	??___flmul
  2459     01BD  0847               	movf	___flmul@temp+1,w
  2460     01BE  00B7               	movwf	??___flmul+1
  2461     01BF  01B8               	clrf	??___flmul+2
  2462     01C0  01B9               	clrf	??___flmul+3
  2463     01C1  3008               	movlw	8
  2464     01C2                     u2145:
  2465     01C2  35B6               	lslf	??___flmul,f
  2466     01C3  0DB7               	rlf	??___flmul+1,f
  2467     01C4  0DB8               	rlf	??___flmul+2,f
  2468     01C5  0DB9               	rlf	??___flmul+3,f
  2469     01C6                     u2140:
  2470     01C6  0B89               	decfsz	9,f
  2471     01C7  29C2               	goto	u2145
  2472     01C8  0836               	movf	??___flmul,w
  2473     01C9  07C2               	addwf	___flmul@prod,f
  2474     01CA  0837               	movf	??___flmul+1,w
  2475     01CB  3DC3               	addwfc	___flmul@prod+1,f
  2476     01CC  0838               	movf	??___flmul+2,w
  2477     01CD  3DC4               	addwfc	___flmul@prod+2,f
  2478     01CE  0839               	movf	??___flmul+3,w
  2479     01CF  3DC5               	addwfc	___flmul@prod+3,f
  2480     01D0                     l2073:
  2481     01D0  083C               	movf	___flmul@grs,w
  2482     01D1  00B6               	movwf	??___flmul
  2483     01D2  083D               	movf	___flmul@grs+1,w
  2484     01D3  00B7               	movwf	??___flmul+1
  2485     01D4  083E               	movf	___flmul@grs+2,w
  2486     01D5  00B8               	movwf	??___flmul+2
  2487     01D6  083F               	movf	___flmul@grs+3,w
  2488     01D7  00B9               	movwf	??___flmul+3
  2489     01D8  3018               	movlw	24
  2490     01D9                     u2155:
  2491     01D9  36B9               	lsrf	??___flmul+3,f
  2492     01DA  0CB8               	rrf	??___flmul+2,f
  2493     01DB  0CB7               	rrf	??___flmul+1,f
  2494     01DC  0CB6               	rrf	??___flmul,f
  2495     01DD                     u2150:
  2496     01DD  0B89               	decfsz	9,f
  2497     01DE  29D9               	goto	u2155
  2498     01DF  0836               	movf	??___flmul,w
  2499     01E0  07C2               	addwf	___flmul@prod,f
  2500     01E1  0837               	movf	??___flmul+1,w
  2501     01E2  3DC3               	addwfc	___flmul@prod+1,f
  2502     01E3  0838               	movf	??___flmul+2,w
  2503     01E4  3DC4               	addwfc	___flmul@prod+2,f
  2504     01E5  0839               	movf	??___flmul+3,w
  2505     01E6  3DC5               	addwfc	___flmul@prod+3,f
  2506     01E7                     l2075:
  2507     01E7  3008               	movlw	8
  2508     01E8                     u2165:
  2509     01E8  35BC               	lslf	___flmul@grs,f
  2510     01E9  0DBD               	rlf	___flmul@grs+1,f
  2511     01EA  0DBE               	rlf	___flmul@grs+2,f
  2512     01EB  0DBF               	rlf	___flmul@grs+3,f
  2513     01EC  0B89               	decfsz	9,f
  2514     01ED  29E8               	goto	u2165
  2515     01EE                     l2077:
  2516     01EE  0841               	movf	___flmul@bexp,w
  2517     01EF  0740               	addwf	___flmul@aexp,w
  2518     01F0  00B6               	movwf	??___flmul
  2519     01F1  01B7               	clrf	??___flmul+1
  2520     01F2  0DB7               	rlf	??___flmul+1,f
  2521     01F3  0836               	movf	??___flmul,w
  2522     01F4  3E82               	addlw	130
  2523     01F5  00C6               	movwf	___flmul@temp
  2524     01F6  30FF               	movlw	255
  2525     01F7  3D37               	addwfc	??___flmul+1,w
  2526     01F8  00C7               	movwf	___flmul@temp+1
  2527     01F9  2A11               	goto	l2089
  2528     01FA                     l2079:
  2529     01FA  3001               	movlw	1
  2530     01FB                     u2175:
  2531     01FB  35C2               	lslf	___flmul@prod,f
  2532     01FC  0DC3               	rlf	___flmul@prod+1,f
  2533     01FD  0DC4               	rlf	___flmul@prod+2,f
  2534     01FE  0DC5               	rlf	___flmul@prod+3,f
  2535     01FF  0B89               	decfsz	9,f
  2536     0200  29FB               	goto	u2175
  2537     0201                     l2081:
  2538     0201  1FBF               	btfss	___flmul@grs+3,7
  2539     0202  2A04               	goto	u2181
  2540     0203  2A05               	goto	u2180
  2541     0204                     u2181:
  2542     0204  2A06               	goto	l2085
  2543     0205                     u2180:
  2544     0205                     l2083:
  2545     0205  1442               	bsf	___flmul@prod,0
  2546     0206                     l2085:
  2547     0206  3001               	movlw	1
  2548     0207                     u2195:
  2549     0207  35BC               	lslf	___flmul@grs,f
  2550     0208  0DBD               	rlf	___flmul@grs+1,f
  2551     0209  0DBE               	rlf	___flmul@grs+2,f
  2552     020A  0DBF               	rlf	___flmul@grs+3,f
  2553     020B  0B89               	decfsz	9,f
  2554     020C  2A07               	goto	u2195
  2555     020D                     l2087:
  2556     020D  30FF               	movlw	255
  2557     020E  07C6               	addwf	___flmul@temp,f
  2558     020F  30FF               	movlw	255
  2559     0210  3DC7               	addwfc	___flmul@temp+1,f
  2560     0211                     l2089:
  2561     0211  1FC4               	btfss	___flmul@prod+2,7
  2562     0212  2A14               	goto	u2201
  2563     0213  2A15               	goto	u2200
  2564     0214                     u2201:
  2565     0214  29FA               	goto	l2079
  2566     0215                     u2200:
  2567     0215                     l2091:
  2568     0215  01C0               	clrf	___flmul@aexp
  2569     0216                     l2093:
  2570     0216  1FBF               	btfss	___flmul@grs+3,7
  2571     0217  2A19               	goto	u2211
  2572     0218  2A1A               	goto	u2210
  2573     0219                     u2211:
  2574     0219  2A36               	goto	l2101
  2575     021A                     u2210:
  2576     021A                     l2095:
  2577     021A  30FF               	movlw	255
  2578     021B  053C               	andwf	___flmul@grs,w
  2579     021C  00B6               	movwf	??___flmul
  2580     021D  30FF               	movlw	255
  2581     021E  053D               	andwf	___flmul@grs+1,w
  2582     021F  00B7               	movwf	??___flmul+1
  2583     0220  30FF               	movlw	255
  2584     0221  053E               	andwf	___flmul@grs+2,w
  2585     0222  00B8               	movwf	??___flmul+2
  2586     0223  307F               	movlw	127
  2587     0224  053F               	andwf	___flmul@grs+3,w
  2588     0225  00B9               	movwf	??___flmul+3
  2589     0226  0839               	movf	??___flmul+3,w
  2590     0227  0438               	iorwf	??___flmul+2,w
  2591     0228  0437               	iorwf	??___flmul+1,w
  2592     0229  0436               	iorwf	??___flmul,w
  2593     022A  1903               	skipnz
  2594     022B  2A2D               	goto	u2221
  2595     022C  2A2E               	goto	u2220
  2596     022D                     u2221:
  2597     022D  2A31               	goto	l806
  2598     022E                     u2220:
  2599     022E                     l2097:
  2600     022E  01C0               	clrf	___flmul@aexp
  2601     022F  0AC0               	incf	___flmul@aexp,f
  2602     0230  2A36               	goto	l2101
  2603     0231                     l806:
  2604     0231  1C42               	btfss	___flmul@prod,0
  2605     0232  2A34               	goto	u2231
  2606     0233  2A35               	goto	u2230
  2607     0234                     u2231:
  2608     0234  2A36               	goto	l2101
  2609     0235                     u2230:
  2610     0235  2A2E               	goto	l2097
  2611     0236                     l2101:
  2612     0236  0840               	movf	___flmul@aexp,w
  2613     0237  1903               	btfsc	3,2
  2614     0238  2A3A               	goto	u2241
  2615     0239  2A3B               	goto	u2240
  2616     023A                     u2241:
  2617     023A  2A63               	goto	l2111
  2618     023B                     u2240:
  2619     023B                     l2103:
  2620     023B  3001               	movlw	1
  2621     023C  07C2               	addwf	___flmul@prod,f
  2622     023D  3000               	movlw	0
  2623     023E  3DC3               	addwfc	___flmul@prod+1,f
  2624     023F  3000               	movlw	0
  2625     0240  3DC4               	addwfc	___flmul@prod+2,f
  2626     0241  3000               	movlw	0
  2627     0242  3DC5               	addwfc	___flmul@prod+3,f
  2628     0243                     l2105:
  2629     0243  1C45               	btfss	___flmul@prod+3,0
  2630     0244  2A46               	goto	u2251
  2631     0245  2A47               	goto	u2250
  2632     0246                     u2251:
  2633     0246  2A63               	goto	l2111
  2634     0247                     u2250:
  2635     0247                     l2107:
  2636     0247  0842               	movf	___flmul@prod,w
  2637     0248  00B6               	movwf	??___flmul
  2638     0249  0843               	movf	___flmul@prod+1,w
  2639     024A  00B7               	movwf	??___flmul+1
  2640     024B  0844               	movf	___flmul@prod+2,w
  2641     024C  00B8               	movwf	??___flmul+2
  2642     024D  0845               	movf	___flmul@prod+3,w
  2643     024E  00B9               	movwf	??___flmul+3
  2644     024F  3001               	movlw	1
  2645     0250  00BA               	movwf	??___flmul+4
  2646     0251                     u2265:
  2647     0251  37B9               	asrf	??___flmul+3,f
  2648     0252  0CB8               	rrf	??___flmul+2,f
  2649     0253  0CB7               	rrf	??___flmul+1,f
  2650     0254  0CB6               	rrf	??___flmul,f
  2651     0255                     u2260:
  2652     0255  0BBA               	decfsz	??___flmul+4,f
  2653     0256  2A51               	goto	u2265
  2654     0257  0839               	movf	??___flmul+3,w
  2655     0258  00C5               	movwf	___flmul@prod+3
  2656     0259  0838               	movf	??___flmul+2,w
  2657     025A  00C4               	movwf	___flmul@prod+2
  2658     025B  0837               	movf	??___flmul+1,w
  2659     025C  00C3               	movwf	___flmul@prod+1
  2660     025D  0836               	movf	??___flmul,w
  2661     025E  00C2               	movwf	___flmul@prod
  2662     025F                     l2109:
  2663     025F  3001               	movlw	1
  2664     0260  07C6               	addwf	___flmul@temp,f
  2665     0261  3000               	movlw	0
  2666     0262  3DC7               	addwfc	___flmul@temp+1,f
  2667     0263                     l2111:
  2668     0263  0847               	movf	___flmul@temp+1,w
  2669     0264  3A80               	xorlw	128
  2670     0265  00B6               	movwf	??___flmul
  2671     0266  3080               	movlw	128
  2672     0267  0236               	subwf	??___flmul,w
  2673     0268  1D03               	skipz
  2674     0269  2A6C               	goto	u2275
  2675     026A  30FF               	movlw	255
  2676     026B  0246               	subwf	___flmul@temp,w
  2677     026C                     u2275:
  2678     026C  1C03               	skipc
  2679     026D  2A6F               	goto	u2271
  2680     026E  2A70               	goto	u2270
  2681     026F                     u2271:
  2682     026F  2A7A               	goto	l2115
  2683     0270                     u2270:
  2684     0270                     l2113:
  2685     0270  307F               	movlw	127
  2686     0271  0020               	movlb	0	; select bank0
  2687     0272  00C5               	movwf	___flmul@prod+3
  2688     0273  3080               	movlw	128
  2689     0274  00C4               	movwf	___flmul@prod+2
  2690     0275  3000               	movlw	0
  2691     0276  00C3               	movwf	___flmul@prod+1
  2692     0277  3000               	movlw	0
  2693     0278  00C2               	movwf	___flmul@prod
  2694     0279  2AA5               	goto	l812
  2695     027A                     l2115:
  2696     027A  0020               	movlb	0	; select bank0
  2697     027B  0847               	movf	___flmul@temp+1,w
  2698     027C  3A80               	xorlw	128
  2699     027D  00B6               	movwf	??___flmul
  2700     027E  3080               	movlw	128
  2701     027F  0236               	subwf	??___flmul,w
  2702     0280  1D03               	skipz
  2703     0281  2A84               	goto	u2285
  2704     0282  3001               	movlw	1
  2705     0283  0246               	subwf	___flmul@temp,w
  2706     0284                     u2285:
  2707     0284  1803               	skipnc
  2708     0285  2A87               	goto	u2281
  2709     0286  2A88               	goto	u2280
  2710     0287                     u2281:
  2711     0287  2A93               	goto	l2121
  2712     0288                     u2280:
  2713     0288                     l2117:
  2714     0288  3000               	movlw	0
  2715     0289  0020               	movlb	0	; select bank0
  2716     028A  00C5               	movwf	___flmul@prod+3
  2717     028B  3000               	movlw	0
  2718     028C  00C4               	movwf	___flmul@prod+2
  2719     028D  3000               	movlw	0
  2720     028E  00C3               	movwf	___flmul@prod+1
  2721     028F  3000               	movlw	0
  2722     0290  00C2               	movwf	___flmul@prod
  2723     0291                     l2119:
  2724     0291  01BB               	clrf	___flmul@sign
  2725     0292  2AA5               	goto	l812
  2726     0293                     l2121:
  2727     0293  0020               	movlb	0	; select bank0
  2728     0294  0846               	movf	___flmul@temp,w
  2729     0295  00C1               	movwf	___flmul@bexp
  2730     0296  30FF               	movlw	255
  2731     0297  05C2               	andwf	___flmul@prod,f
  2732     0298  30FF               	movlw	255
  2733     0299  05C3               	andwf	___flmul@prod+1,f
  2734     029A  307F               	movlw	127
  2735     029B  05C4               	andwf	___flmul@prod+2,f
  2736     029C  3000               	movlw	0
  2737     029D  05C5               	andwf	___flmul@prod+3,f
  2738     029E                     l2123:
  2739     029E  1C41               	btfss	___flmul@bexp,0
  2740     029F  2AA1               	goto	u2291
  2741     02A0  2AA2               	goto	u2290
  2742     02A1                     u2291:
  2743     02A1  2AA3               	goto	l2127
  2744     02A2                     u2290:
  2745     02A2                     l2125:
  2746     02A2  17C4               	bsf	___flmul@prod+2,7
  2747     02A3                     l2127:
  2748     02A3  3641               	lsrf	___flmul@bexp,w
  2749     02A4  00C5               	movwf	___flmul@prod+3
  2750     02A5                     l812:
  2751     02A5  083B               	movf	___flmul@sign,w
  2752     02A6  00B6               	movwf	??___flmul
  2753     02A7  0836               	movf	??___flmul,w
  2754     02A8  04C5               	iorwf	___flmul@prod+3,f
  2755     02A9                     l2129:
  2756     02A9  0845               	movf	___flmul@prod+3,w
  2757     02AA  00B1               	movwf	?___flmul+3
  2758     02AB  0844               	movf	___flmul@prod+2,w
  2759     02AC  00B0               	movwf	?___flmul+2
  2760     02AD  0843               	movf	___flmul@prod+1,w
  2761     02AE  00AF               	movwf	?___flmul+1
  2762     02AF  0842               	movf	___flmul@prod,w
  2763     02B0  00AE               	movwf	?___flmul
  2764     02B1                     l800:
  2765     02B1  0008               	return
  2766     02B2                     __end_of___flmul:
  2767                           
  2768                           	psect	text5
  2769     0F6F                     __ptext5:	
  2770 ;; *************** function __Umul8_16 *****************
  2771 ;; Defined at:
  2772 ;;		line 4 in file "/Applications/microchip/xc8/v2.46/pic/sources/c99/common/Umul8_16.c"
  2773 ;; Parameters:    Size  Location     Type
  2774 ;;  multiplier      1    wreg     unsigned char 
  2775 ;;  multiplicand    1    1[COMMON] unsigned char 
  2776 ;; Auto vars:     Size  Location     Type
  2777 ;;  multiplier      1    9[COMMON] unsigned char 
  2778 ;;  word_mpld       2    7[COMMON] unsigned short 
  2779 ;;  product         2    5[COMMON] unsigned short 
  2780 ;; Return value:  Size  Location     Type
  2781 ;;                  2    1[COMMON] unsigned int 
  2782 ;; Registers used:
  2783 ;;		wreg, status,2, status,0
  2784 ;; Tracked objects:
  2785 ;;		On entry : 0/0
  2786 ;;		On exit  : 0/0
  2787 ;;		Unchanged: 0/0
  2788 ;; Data sizes:     COMMON   BANK0   BANK1   BANK2   BANK3   BANK4   BANK5
  2789 ;;      Params:         2       0       0       0       0       0       0
  2790 ;;      Locals:         5       0       0       0       0       0       0
  2791 ;;      Temps:          2       0       0       0       0       0       0
  2792 ;;      Totals:         9       0       0       0       0       0       0
  2793 ;;Total ram usage:        9 bytes
  2794 ;; Hardware stack levels used: 1
  2795 ;; Hardware stack levels required when called: 1
  2796 ;; This function calls:
  2797 ;;		Nothing
  2798 ;; This function is called by:
  2799 ;;		___flmul
  2800 ;; This function uses a non-reentrant model
  2801 ;;
  2802                           
  2803     0F6F                     __Umul8_16:	
  2804                           ;psect for function __Umul8_16
  2805                           
  2806                           
  2807                           ;incstack = 0
  2808                           ; Regs used in __Umul8_16: [wreg+status,2+status,0]
  2809                           ;__Umul8_16@multiplier stored from wreg
  2810     0F6F  00F9               	movwf	__Umul8_16@multiplier
  2811     0F70                     l1789:
  2812     0F70  01F5               	clrf	__Umul8_16@product
  2813     0F71  01F6               	clrf	__Umul8_16@product+1
  2814     0F72                     l1791:
  2815     0F72  0871               	movf	__Umul8_16@multiplicand,w
  2816     0F73  00F3               	movwf	??__Umul8_16
  2817     0F74  01F4               	clrf	??__Umul8_16+1
  2818     0F75  0873               	movf	??__Umul8_16,w
  2819     0F76  00F7               	movwf	__Umul8_16@word_mpld
  2820     0F77  0874               	movf	??__Umul8_16+1,w
  2821     0F78  00F8               	movwf	__Umul8_16@word_mpld+1
  2822     0F79                     l1793:
  2823     0F79  1C79               	btfss	__Umul8_16@multiplier,0
  2824     0F7A  2F7C               	goto	u1701
  2825     0F7B  2F7D               	goto	u1700
  2826     0F7C                     u1701:
  2827     0F7C  2F81               	goto	l819
  2828     0F7D                     u1700:
  2829     0F7D                     l1795:
  2830     0F7D  0877               	movf	__Umul8_16@word_mpld,w
  2831     0F7E  07F5               	addwf	__Umul8_16@product,f
  2832     0F7F  0878               	movf	__Umul8_16@word_mpld+1,w
  2833     0F80  3DF6               	addwfc	__Umul8_16@product+1,f
  2834     0F81                     l819:
  2835     0F81  3001               	movlw	1
  2836     0F82                     u1715:
  2837     0F82  35F7               	lslf	__Umul8_16@word_mpld,f
  2838     0F83  0DF8               	rlf	__Umul8_16@word_mpld+1,f
  2839     0F84  0B89               	decfsz	9,f
  2840     0F85  2F82               	goto	u1715
  2841     0F86  1003               	clrc
  2842     0F87  0CF9               	rrf	__Umul8_16@multiplier,f
  2843     0F88                     l1797:
  2844     0F88  0879               	movf	__Umul8_16@multiplier,w
  2845     0F89  1D03               	btfss	3,2
  2846     0F8A  2F8C               	goto	u1721
  2847     0F8B  2F8D               	goto	u1720
  2848     0F8C                     u1721:
  2849     0F8C  2F79               	goto	l1793
  2850     0F8D                     u1720:
  2851     0F8D                     l1799:
  2852     0F8D  0876               	movf	__Umul8_16@product+1,w
  2853     0F8E  00F2               	movwf	?__Umul8_16+1
  2854     0F8F  0875               	movf	__Umul8_16@product,w
  2855     0F90  00F1               	movwf	?__Umul8_16
  2856     0F91                     l821:
  2857     0F91  0008               	return
  2858     0F92                     __end_of__Umul8_16:
  2859                           
  2860                           	psect	text6
  2861     0FC7                     __ptext6:	
  2862 ;; *************** function _init *****************
  2863 ;; Defined at:
  2864 ;;		line 518 in file "main.c"
  2865 ;; Parameters:    Size  Location     Type
  2866 ;;		None
  2867 ;; Auto vars:     Size  Location     Type
  2868 ;;  counter         1   11[COMMON] unsigned char 
  2869 ;; Return value:  Size  Location     Type
  2870 ;;                  1    wreg      void 
  2871 ;; Registers used:
  2872 ;;		wreg, fsr0l, fsr0h, status,2, status,0, pclath, cstack
  2873 ;; Tracked objects:
  2874 ;;		On entry : 0/0
  2875 ;;		On exit  : 0/0
  2876 ;;		Unchanged: 0/0
  2877 ;; Data sizes:     COMMON   BANK0   BANK1   BANK2   BANK3   BANK4   BANK5
  2878 ;;      Params:         0       0       0       0       0       0       0
  2879 ;;      Locals:         1       0       0       0       0       0       0
  2880 ;;      Temps:          0       2       0       0       0       0       0
  2881 ;;      Totals:         1       2       0       0       0       0       0
  2882 ;;Total ram usage:        3 bytes
  2883 ;; Hardware stack levels used: 1
  2884 ;; Hardware stack levels required when called: 6
  2885 ;; This function calls:
  2886 ;;		_check_and_set_max
  2887 ;;		_display_digit
  2888 ;;		_initPwm
  2889 ;;		_init_EEPROM
  2890 ;;		_init_port
  2891 ;;		_init_timer
  2892 ;;		_set_factory_settings
  2893 ;; This function is called by:
  2894 ;;		_main
  2895 ;; This function uses a non-reentrant model
  2896 ;;
  2897                           
  2898     0FC7                     _init:	
  2899                           ;psect for function _init
  2900                           
  2901     0FC7                     l2753:	
  2902                           ;incstack = 0
  2903                           ; Regs used in _init: [wreg-fsr0h+status,2+status,0+pclath+cstack]
  2904                           
  2905                           
  2906                           ;main.c: 520:     duty_cycle = 0;
  2907     0FC7  0020               	movlb	0	; select bank0
  2908     0FC8  01EA               	clrf	_duty_cycle
  2909     0FC9  01EB               	clrf	_duty_cycle+1
  2910                           
  2911                           ;main.c: 521:     pwm_value = 0;
  2912     0FCA  01E8               	clrf	_pwm_value
  2913     0FCB  01E9               	clrf	_pwm_value+1
  2914                           
  2915                           ;main.c: 522:     is_pwm_loaded = 0;
  2916     0FCC  01EC               	clrf	_is_pwm_loaded
  2917     0FCD                     l2755:
  2918                           
  2919                           ;main.c: 524:     init_port();
  2920     0FCD  318E  26D2  318F   	fcall	_init_port
  2921     0FD0                     l2757:
  2922                           
  2923                           ;main.c: 526:     initPwm();
  2924     0FD0  318E  26F3  318F   	fcall	_initPwm
  2925     0FD3                     l2759:
  2926                           
  2927                           ;main.c: 528:     init_timer();
  2928     0FD3  3187  27F7  318F   	fcall	_init_timer
  2929     0FD6                     l2761:
  2930                           
  2931                           ;main.c: 530:     check_and_set_max();
  2932     0FD6  3184  24FC  318F   	fcall	_check_and_set_max
  2933     0FD9                     l2763:
  2934                           
  2935                           ;main.c: 532:     set_factory_settings();
  2936     0FD9  3183  235D  318F   	fcall	_set_factory_settings
  2937     0FDC                     l2765:
  2938                           
  2939                           ;main.c: 534:     init_EEPROM();
  2940     0FDC  3186  26AC  318F   	fcall	_init_EEPROM
  2941                           
  2942                           ;main.c: 536:     for (uint8_t counter = 0 ; counter < 5 ; counter ++)
  2943     0FDF  01FB               	clrf	init@counter
  2944     0FE0                     l2771:
  2945                           
  2946                           ;main.c: 537:     {;main.c: 538:         display_digit(max_value);
  2947     0FE0  0020               	movlb	0	; select bank0
  2948     0FE1  0867               	movf	_max_value+1,w
  2949     0FE2  00A5               	movwf	display_digit@value+1
  2950     0FE3  0866               	movf	_max_value,w
  2951     0FE4  00A4               	movwf	display_digit@value
  2952     0FE5  3184  2482  318F   	fcall	_display_digit
  2953     0FE8                     l2773:
  2954                           
  2955                           ;main.c: 539:         _delay((unsigned long)((800)*(4000000/4000.0)));
  2956     0FE8  3005               	movlw	5
  2957     0FE9  0020               	movlb	0	; select bank0
  2958     0FEA  00B5               	movwf	??_init+1
  2959     0FEB  300F               	movlw	15
  2960     0FEC  00B4               	movwf	??_init
  2961     0FED  30F1               	movlw	241
  2962     0FEE                     u3507:
  2963     0FEE  0B89               	decfsz	9,f
  2964     0FEF  2FEE               	goto	u3507
  2965     0FF0  0BB4               	decfsz	??_init,f
  2966     0FF1  2FEE               	goto	u3507
  2967     0FF2  0BB5               	decfsz	??_init+1,f
  2968     0FF3  2FEE               	goto	u3507
  2969     0FF4                     l2775:
  2970                           
  2971                           ;main.c: 540:     }
  2972     0FF4  3001               	movlw	1
  2973     0FF5  0020               	movlb	0	; select bank0
  2974     0FF6  00B4               	movwf	??_init
  2975     0FF7  0834               	movf	??_init,w
  2976     0FF8  07FB               	addwf	init@counter,f
  2977     0FF9                     l2777:
  2978     0FF9  3005               	movlw	5
  2979     0FFA  027B               	subwf	init@counter,w
  2980     0FFB  1C03               	skipc
  2981     0FFC  2FFE               	goto	u3431
  2982     0FFD  2FFF               	goto	u3430
  2983     0FFE                     u3431:
  2984     0FFE  2FE0               	goto	l2771
  2985     0FFF                     u3430:
  2986     0FFF                     l203:
  2987     0FFF  0008               	return
  2988     1000                     __end_of_init:
  2989                           
  2990                           	psect	text7
  2991     035D                     __ptext7:	
  2992 ;; *************** function _set_factory_settings *****************
  2993 ;; Defined at:
  2994 ;;		line 442 in file "main.c"
  2995 ;; Parameters:    Size  Location     Type
  2996 ;;		None
  2997 ;; Auto vars:     Size  Location     Type
  2998 ;;  j               1    9[COMMON] unsigned char 
  2999 ;;  i               1    7[COMMON] unsigned char 
  3000 ;;  f_store_last    1    0        unsigned char 
  3001 ;;  factory_sett    1    8[COMMON] unsigned char 
  3002 ;; Return value:  Size  Location     Type
  3003 ;;                  1    wreg      void 
  3004 ;; Registers used:
  3005 ;;		wreg, fsr0l, fsr0h, status,2, status,0, pclath, cstack
  3006 ;; Tracked objects:
  3007 ;;		On entry : 0/0
  3008 ;;		On exit  : 0/0
  3009 ;;		Unchanged: 0/0
  3010 ;; Data sizes:     COMMON   BANK0   BANK1   BANK2   BANK3   BANK4   BANK5
  3011 ;;      Params:         0       0       0       0       0       0       0
  3012 ;;      Locals:         3       0       0       0       0       0       0
  3013 ;;      Temps:          2       0       0       0       0       0       0
  3014 ;;      Totals:         5       0       0       0       0       0       0
  3015 ;;Total ram usage:        5 bytes
  3016 ;; Hardware stack levels used: 1
  3017 ;; Hardware stack levels required when called: 2
  3018 ;; This function calls:
  3019 ;;		_display_FR_command
  3020 ;;		_eeprom_write
  3021 ;;		_is_dec_switch_pressed
  3022 ;;		_is_inc_switch_pressed
  3023 ;; This function is called by:
  3024 ;;		_init
  3025 ;; This function uses a non-reentrant model
  3026 ;;
  3027                           
  3028     035D                     _set_factory_settings:	
  3029                           ;psect for function _set_factory_settings
  3030                           
  3031     035D                     l2613:	
  3032                           ;incstack = 0
  3033                           ; Regs used in _set_factory_settings: [wreg-fsr0h+status,2+status,0+pclath+cstack]
  3034                           
  3035                           
  3036                           ;main.c: 446:     uint8_t factory_setting_mode_enabled = 0;
  3037     035D  01F8               	clrf	set_factory_settings@factory_setting_mode_enabled
  3038     035E                     l2615:
  3039                           
  3040                           ;main.c: 447:     if (is_dec_switch_pressed())
  3041     035E  318F  271C  3183   	fcall	_is_dec_switch_pressed
  3042     0361  3A00               	xorlw	0
  3043     0362  1903               	skipnz
  3044     0363  2B65               	goto	u3061
  3045     0364  2B66               	goto	u3060
  3046     0365                     u3061:
  3047     0365  2B80               	goto	l2623
  3048     0366                     u3060:
  3049     0366                     l2617:
  3050                           
  3051                           ;main.c: 448:     {;main.c: 450:         _delay((unsigned long)((5000)*(4000000/4000.0))
      +                          );
  3052     0366  301A               	movlw	26
  3053     0367  00F6               	movwf	??_set_factory_settings+1
  3054     0368  305E               	movlw	94
  3055     0369  00F5               	movwf	??_set_factory_settings
  3056     036A  306E               	movlw	110
  3057     036B                     u3517:
  3058     036B  0B89               	decfsz	9,f
  3059     036C  2B6B               	goto	u3517
  3060     036D  0BF5               	decfsz	??_set_factory_settings,f
  3061     036E  2B6B               	goto	u3517
  3062     036F  0BF6               	decfsz	??_set_factory_settings+1,f
  3063     0370  2B6B               	goto	u3517
  3064     0371  3200               	nop2
  3065                           
  3066                           ;main.c: 453:         while(is_dec_switch_pressed())
  3067     0372  2B78               	goto	l2621
  3068     0373                     l182:
  3069                           
  3070                           ;main.c: 454:         {;main.c: 456:             factory_setting_mode_enabled = 1;
  3071     0373  01F8               	clrf	set_factory_settings@factory_setting_mode_enabled
  3072     0374  0AF8               	incf	set_factory_settings@factory_setting_mode_enabled,f
  3073     0375                     l2619:
  3074                           
  3075                           ;main.c: 458:             display_FR_command();
  3076     0375  318E  26E1  3183   	fcall	_display_FR_command
  3077     0378                     l2621:
  3078                           
  3079                           ;main.c: 453:         while(is_dec_switch_pressed())
  3080     0378  318F  271C  3183   	fcall	_is_dec_switch_pressed
  3081     037B  3A00               	xorlw	0
  3082     037C  1D03               	skipz
  3083     037D  2B7F               	goto	u3071
  3084     037E  2B80               	goto	u3070
  3085     037F                     u3071:
  3086     037F  2B73               	goto	l182
  3087     0380                     u3070:
  3088     0380                     l2623:
  3089                           
  3090                           ;main.c: 464:     if (factory_setting_mode_enabled)
  3091     0380  0878               	movf	set_factory_settings@factory_setting_mode_enabled,w
  3092     0381  1903               	btfsc	3,2
  3093     0382  2B84               	goto	u3081
  3094     0383  2B85               	goto	u3080
  3095     0384                     u3081:
  3096     0384  2BF1               	goto	l198
  3097     0385                     u3080:
  3098     0385                     l2625:
  3099                           
  3100                           ;main.c: 469:         { uint8_t i,j = 0;
  3101     0385  01F9               	clrf	set_factory_settings@j
  3102     0386                     l2627:
  3103                           
  3104                           ;main.c: 471:             {;main.c: 472:                 GIE = 0;
  3105     0386  138B               	bcf	11,7	;volatile
  3106     0387                     l2629:
  3107                           
  3108                           ;main.c: 473:                 PORTC = 0b1101110;
  3109     0387  306E               	movlw	110
  3110     0388  0020               	movlb	0	; select bank0
  3111     0389  008E               	movwf	14	;volatile
  3112     038A                     l2631:
  3113                           
  3114                           ;main.c: 474:                 PORTBbits.RB3 = 0;
  3115     038A  118D               	bcf	13,3	;volatile
  3116     038B                     l2633:
  3117                           
  3118                           ;main.c: 475:                 _delay((unsigned long)((1)*(4000000/4000.0)));
  3119     038B  30C8               	movlw	200
  3120     038C                     u3527:
  3121     038C  3200               	nop2
  3122     038D  0B89               	decfsz	9,f
  3123     038E  2B8C               	goto	u3527
  3124     038F                     l2635:
  3125                           
  3126                           ;main.c: 476:                 PORTBbits.RB2 = PORTBbits.RB1 = PORTBbits.RB0 = 1;
  3127     038F  0020               	movlb	0	; select bank0
  3128     0390  140D               	bsf	13,0	;volatile
  3129     0391  180D               	btfsc	13,0	;volatile
  3130     0392  2B94               	goto	u3091
  3131     0393  2B97               	goto	u3090
  3132     0394                     u3091:
  3133     0394  0020               	movlb	0	; select bank0
  3134     0395  148D               	bsf	13,1	;volatile
  3135     0396  2B99               	goto	u3104
  3136     0397                     u3090:
  3137     0397  0020               	movlb	0	; select bank0
  3138     0398  108D               	bcf	13,1	;volatile
  3139     0399                     u3104:
  3140     0399  188D               	btfsc	13,1	;volatile
  3141     039A  2B9C               	goto	u3101
  3142     039B  2B9F               	goto	u3100
  3143     039C                     u3101:
  3144     039C  0020               	movlb	0	; select bank0
  3145     039D  150D               	bsf	13,2	;volatile
  3146     039E  2BA1               	goto	u3114
  3147     039F                     u3100:
  3148     039F  0020               	movlb	0	; select bank0
  3149     03A0  110D               	bcf	13,2	;volatile
  3150     03A1                     u3114:
  3151     03A1                     l2637:
  3152                           
  3153                           ;main.c: 478:                 if (i == 0 )
  3154     03A1  0877               	movf	set_factory_settings@i,w
  3155     03A2  1D03               	btfss	3,2
  3156     03A3  2BA5               	goto	u3121
  3157     03A4  2BA6               	goto	u3120
  3158     03A5                     u3121:
  3159     03A5  2BB0               	goto	l2645
  3160     03A6                     u3120:
  3161     03A6                     l2639:
  3162     03A6                     l2641:
  3163                           
  3164                           ;main.c: 481:                     eeprom_write(3, f_store_last_value);
  3165     03A6  303F               	movlw	63
  3166     03A7  00F1               	movwf	eeprom_write@value
  3167     03A8  3003               	movlw	3
  3168     03A9  3187  27CD  3183   	fcall	_eeprom_write
  3169     03AC                     l2643:
  3170                           
  3171                           ;main.c: 482:                     ++i;
  3172     03AC  3001               	movlw	1
  3173     03AD  00F5               	movwf	??_set_factory_settings
  3174     03AE  0875               	movf	??_set_factory_settings,w
  3175     03AF  07F7               	addwf	set_factory_settings@i,f
  3176     03B0                     l2645:
  3177                           
  3178                           ;main.c: 484:                 if(is_inc_switch_pressed())
  3179     03B0  318F  2735  3183   	fcall	_is_inc_switch_pressed
  3180     03B3  3A00               	xorlw	0
  3181     03B4  1903               	skipnz
  3182     03B5  2BB7               	goto	u3131
  3183     03B6  2BB8               	goto	u3130
  3184     03B7                     u3131:
  3185     03B7  2B86               	goto	l2627
  3186     03B8                     u3130:
  3187     03B8                     l191:	
  3188                           ;main.c: 490:             while(1)
  3189                           
  3190                           
  3191                           ;main.c: 491:             {;main.c: 492:                 GIE = 0;
  3192     03B8  138B               	bcf	11,7	;volatile
  3193     03B9                     l2649:
  3194                           
  3195                           ;main.c: 493:                 PORTC = 0b1010100;
  3196     03B9  3054               	movlw	84
  3197     03BA  0020               	movlb	0	; select bank0
  3198     03BB  008E               	movwf	14	;volatile
  3199     03BC                     l2651:
  3200                           
  3201                           ;main.c: 494:                 PORTBbits.RB3 = 0;
  3202     03BC  118D               	bcf	13,3	;volatile
  3203                           
  3204                           ;main.c: 495:                 _delay((unsigned long)((1)*(4000000/4000.0)));
  3205     03BD  30C8               	movlw	200
  3206     03BE                     u3537:
  3207     03BE  3200               	nop2
  3208     03BF  0B89               	decfsz	9,f
  3209     03C0  2BBE               	goto	u3537
  3210     03C1                     l2653:
  3211                           
  3212                           ;main.c: 496:                 PORTBbits.RB2 = PORTBbits.RB1 = PORTBbits.RB0 = 1;
  3213     03C1  0020               	movlb	0	; select bank0
  3214     03C2  140D               	bsf	13,0	;volatile
  3215     03C3  180D               	btfsc	13,0	;volatile
  3216     03C4  2BC6               	goto	u3141
  3217     03C5  2BC9               	goto	u3140
  3218     03C6                     u3141:
  3219     03C6  0020               	movlb	0	; select bank0
  3220     03C7  148D               	bsf	13,1	;volatile
  3221     03C8  2BCB               	goto	u3154
  3222     03C9                     u3140:
  3223     03C9  0020               	movlb	0	; select bank0
  3224     03CA  108D               	bcf	13,1	;volatile
  3225     03CB                     u3154:
  3226     03CB  188D               	btfsc	13,1	;volatile
  3227     03CC  2BCE               	goto	u3151
  3228     03CD  2BD1               	goto	u3150
  3229     03CE                     u3151:
  3230     03CE  0020               	movlb	0	; select bank0
  3231     03CF  150D               	bsf	13,2	;volatile
  3232     03D0  2BD3               	goto	u3164
  3233     03D1                     u3150:
  3234     03D1  0020               	movlb	0	; select bank0
  3235     03D2  110D               	bcf	13,2	;volatile
  3236     03D3                     u3164:
  3237     03D3                     l2655:
  3238                           
  3239                           ;main.c: 499:                 eeprom_write(3, f_store_last_value);
  3240     03D3  30AA               	movlw	170
  3241     03D4  00F1               	movwf	eeprom_write@value
  3242     03D5  3003               	movlw	3
  3243     03D6  3187  27CD  3183   	fcall	_eeprom_write
  3244     03D9                     l2657:
  3245                           
  3246                           ;main.c: 501:                 if (j == 0 )
  3247     03D9  0879               	movf	set_factory_settings@j,w
  3248     03DA  1D03               	btfss	3,2
  3249     03DB  2BDD               	goto	u3171
  3250     03DC  2BDE               	goto	u3170
  3251     03DD                     u3171:
  3252     03DD  2BE8               	goto	l2665
  3253     03DE                     u3170:
  3254     03DE                     l2659:
  3255     03DE                     l2661:
  3256                           
  3257                           ;main.c: 504:                     eeprom_write(3, f_store_last_value);
  3258     03DE  30AA               	movlw	170
  3259     03DF  00F1               	movwf	eeprom_write@value
  3260     03E0  3003               	movlw	3
  3261     03E1  3187  27CD  3183   	fcall	_eeprom_write
  3262     03E4                     l2663:
  3263                           
  3264                           ;main.c: 505:                     ++j;
  3265     03E4  3001               	movlw	1
  3266     03E5  00F5               	movwf	??_set_factory_settings
  3267     03E6  0875               	movf	??_set_factory_settings,w
  3268     03E7  07F9               	addwf	set_factory_settings@j,f
  3269     03E8                     l2665:
  3270                           
  3271                           ;main.c: 508:                 if (is_dec_switch_pressed())
  3272     03E8  318F  271C  3183   	fcall	_is_dec_switch_pressed
  3273     03EB  3A00               	xorlw	0
  3274     03EC  1903               	skipnz
  3275     03ED  2BEF               	goto	u3181
  3276     03EE  2BF0               	goto	u3180
  3277     03EF                     u3181:
  3278     03EF  2BB8               	goto	l191
  3279     03F0                     u3180:
  3280     03F0  2B85               	goto	l2625
  3281     03F1                     l198:
  3282     03F1  0008               	return
  3283     03F2                     __end_of_set_factory_settings:
  3284                           
  3285                           	psect	text8
  3286     0EE1                     __ptext8:	
  3287 ;; *************** function _display_FR_command *****************
  3288 ;; Defined at:
  3289 ;;		line 257 in file "main.c"
  3290 ;; Parameters:    Size  Location     Type
  3291 ;;		None
  3292 ;; Auto vars:     Size  Location     Type
  3293 ;;		None
  3294 ;; Return value:  Size  Location     Type
  3295 ;;                  1    wreg      void 
  3296 ;; Registers used:
  3297 ;;		wreg, fsr0l, fsr0h, pclath
  3298 ;; Tracked objects:
  3299 ;;		On entry : 0/0
  3300 ;;		On exit  : 0/0
  3301 ;;		Unchanged: 0/0
  3302 ;; Data sizes:     COMMON   BANK0   BANK1   BANK2   BANK3   BANK4   BANK5
  3303 ;;      Params:         0       0       0       0       0       0       0
  3304 ;;      Locals:         0       0       0       0       0       0       0
  3305 ;;      Temps:          0       0       0       0       0       0       0
  3306 ;;      Totals:         0       0       0       0       0       0       0
  3307 ;;Total ram usage:        0 bytes
  3308 ;; Hardware stack levels used: 1
  3309 ;; Hardware stack levels required when called: 1
  3310 ;; This function calls:
  3311 ;;		Nothing
  3312 ;; This function is called by:
  3313 ;;		_set_factory_settings
  3314 ;; This function uses a non-reentrant model
  3315 ;;
  3316                           
  3317     0EE1                     _display_FR_command:	
  3318                           ;psect for function _display_FR_command
  3319                           
  3320     0EE1                     l2427:	
  3321                           ;incstack = 0
  3322                           ; Regs used in _display_FR_command: [wreg-fsr0h+pclath]
  3323                           
  3324                           
  3325                           ;main.c: 259:     digipos[0] = 0x50;
  3326     0EE1  3050               	movlw	80
  3327     0EE2  0020               	movlb	0	; select bank0
  3328     0EE3  00DA               	movwf	_digipos
  3329                           
  3330                           ;main.c: 260:     digipos[1] = 0x71;
  3331     0EE4  3071               	movlw	113
  3332     0EE5  00DB               	movwf	_digipos+1
  3333     0EE6                     l2429:
  3334                           
  3335                           ;main.c: 261:     digipos[2] = DisplayNum[0];
  3336     0EE6  3000               	movlw	low (_DisplayNum| (0+32768))
  3337     0EE7  0084               	movwf	4
  3338     0EE8  3090               	movlw	high (_DisplayNum| (0+32768))
  3339     0EE9  0085               	movwf	5
  3340     0EEA  0800               	movf	0,w	;code access
  3341     0EEB  00DC               	movwf	_digipos+2
  3342     0EEC                     l2431:
  3343                           
  3344                           ;main.c: 262:     digipos[3] = DisplayNum[0];
  3345     0EEC  3000               	movlw	low (_DisplayNum| (0+32768))
  3346     0EED  0084               	movwf	4
  3347     0EEE  3090               	movlw	high (_DisplayNum| (0+32768))
  3348     0EEF  0085               	movwf	5
  3349     0EF0  0800               	movf	0,w	;code access
  3350     0EF1  00DD               	movwf	_digipos+3
  3351     0EF2                     l130:
  3352     0EF2  0008               	return
  3353     0EF3                     __end_of_display_FR_command:
  3354                           
  3355                           	psect	text9
  3356     07F7                     __ptext9:	
  3357 ;; *************** function _init_timer *****************
  3358 ;; Defined at:
  3359 ;;		line 175 in file "main.c"
  3360 ;; Parameters:    Size  Location     Type
  3361 ;;		None
  3362 ;; Auto vars:     Size  Location     Type
  3363 ;;		None
  3364 ;; Return value:  Size  Location     Type
  3365 ;;                  1    wreg      void 
  3366 ;; Registers used:
  3367 ;;		wreg
  3368 ;; Tracked objects:
  3369 ;;		On entry : 0/0
  3370 ;;		On exit  : 0/0
  3371 ;;		Unchanged: 0/0
  3372 ;; Data sizes:     COMMON   BANK0   BANK1   BANK2   BANK3   BANK4   BANK5
  3373 ;;      Params:         0       0       0       0       0       0       0
  3374 ;;      Locals:         0       0       0       0       0       0       0
  3375 ;;      Temps:          0       0       0       0       0       0       0
  3376 ;;      Totals:         0       0       0       0       0       0       0
  3377 ;;Total ram usage:        0 bytes
  3378 ;; Hardware stack levels used: 1
  3379 ;; Hardware stack levels required when called: 1
  3380 ;; This function calls:
  3381 ;;		Nothing
  3382 ;; This function is called by:
  3383 ;;		_init
  3384 ;; This function uses a non-reentrant model
  3385 ;;
  3386                           
  3387     07F7                     _init_timer:	
  3388                           ;psect for function _init_timer
  3389                           
  3390     07F7                     l2541:	
  3391                           ;incstack = 0
  3392                           ; Regs used in _init_timer: [wreg]
  3393                           
  3394                           
  3395                           ;main.c: 177:  T0CS = 0;
  3396     07F7  0021               	movlb	1	; select bank1
  3397     07F8  1295               	bcf	21,5	;volatile
  3398                           
  3399                           ;main.c: 178:     GIE = 1;
  3400     07F9  178B               	bsf	11,7	;volatile
  3401                           
  3402                           ;main.c: 179:  TMR0IF = 0;
  3403     07FA  110B               	bcf	11,2	;volatile
  3404                           
  3405                           ;main.c: 180:  TMR0IE = 1;
  3406     07FB  168B               	bsf	11,5	;volatile
  3407     07FC                     l2543:
  3408                           
  3409                           ;main.c: 181:  OPTION_REG = 0b10000000;
  3410     07FC  3080               	movlw	128
  3411     07FD  0095               	movwf	21	;volatile
  3412     07FE                     l106:
  3413     07FE  0008               	return
  3414     07FF                     __end_of_init_timer:
  3415                           
  3416                           	psect	text10
  3417     0ED2                     __ptext10:	
  3418 ;; *************** function _init_port *****************
  3419 ;; Defined at:
  3420 ;;		line 121 in file "main.c"
  3421 ;; Parameters:    Size  Location     Type
  3422 ;;		None
  3423 ;; Auto vars:     Size  Location     Type
  3424 ;;		None
  3425 ;; Return value:  Size  Location     Type
  3426 ;;                  1    wreg      void 
  3427 ;; Registers used:
  3428 ;;		wreg, status,2
  3429 ;; Tracked objects:
  3430 ;;		On entry : 0/0
  3431 ;;		On exit  : 0/0
  3432 ;;		Unchanged: 0/0
  3433 ;; Data sizes:     COMMON   BANK0   BANK1   BANK2   BANK3   BANK4   BANK5
  3434 ;;      Params:         0       0       0       0       0       0       0
  3435 ;;      Locals:         0       0       0       0       0       0       0
  3436 ;;      Temps:          0       0       0       0       0       0       0
  3437 ;;      Totals:         0       0       0       0       0       0       0
  3438 ;;Total ram usage:        0 bytes
  3439 ;; Hardware stack levels used: 1
  3440 ;; Hardware stack levels required when called: 1
  3441 ;; This function calls:
  3442 ;;		Nothing
  3443 ;; This function is called by:
  3444 ;;		_init
  3445 ;; This function uses a non-reentrant model
  3446 ;;
  3447                           
  3448     0ED2                     _init_port:	
  3449                           ;psect for function _init_port
  3450                           
  3451     0ED2                     l2529:	
  3452                           ;incstack = 0
  3453                           ; Regs used in _init_port: [wreg+status,2]
  3454                           
  3455                           
  3456                           ;main.c: 122:     TRISB = 0x30;
  3457     0ED2  3030               	movlw	48
  3458     0ED3  0021               	movlb	1	; select bank1
  3459     0ED4  008D               	movwf	13	;volatile
  3460     0ED5                     l2531:
  3461                           
  3462                           ;main.c: 123:     TRISC = 0x00;
  3463     0ED5  018E               	clrf	14	;volatile
  3464     0ED6                     l2533:
  3465                           
  3466                           ;main.c: 124:     TRISA4 = 0;
  3467     0ED6  120C               	bcf	12,4	;volatile
  3468     0ED7                     l2535:
  3469                           
  3470                           ;main.c: 125:     PORTC = 0x00;
  3471     0ED7  0020               	movlb	0	; select bank0
  3472     0ED8  018E               	clrf	14	;volatile
  3473                           
  3474                           ;main.c: 126:     OSCCON = 0x6A;
  3475     0ED9  306A               	movlw	106
  3476     0EDA  0021               	movlb	1	; select bank1
  3477     0EDB  0099               	movwf	25	;volatile
  3478     0EDC                     l2537:
  3479                           
  3480                           ;main.c: 127:     ANSELB = 0x00;
  3481     0EDC  0023               	movlb	3	; select bank3
  3482     0EDD  018D               	clrf	13	;volatile
  3483     0EDE                     l2539:
  3484                           
  3485                           ;main.c: 128:     PORTB = 0x00;
  3486     0EDE  0020               	movlb	0	; select bank0
  3487     0EDF  018D               	clrf	13	;volatile
  3488     0EE0                     l91:
  3489     0EE0  0008               	return
  3490     0EE1                     __end_of_init_port:
  3491                           
  3492                           	psect	text11
  3493     06AC                     __ptext11:	
  3494 ;; *************** function _init_EEPROM *****************
  3495 ;; Defined at:
  3496 ;;		line 355 in file "main.c"
  3497 ;; Parameters:    Size  Location     Type
  3498 ;;		None
  3499 ;; Auto vars:     Size  Location     Type
  3500 ;;  max_upper_by    2    6[BANK0 ] unsigned short 
  3501 ;;  max_lower_by    2    4[BANK0 ] unsigned short 
  3502 ;;  last_upper_b    2    2[BANK0 ] unsigned short 
  3503 ;;  last_lower_b    2    0[BANK0 ] unsigned short 
  3504 ;; Return value:  Size  Location     Type
  3505 ;;                  1    wreg      void 
  3506 ;; Registers used:
  3507 ;;		wreg, status,2, status,0, pclath, cstack
  3508 ;; Tracked objects:
  3509 ;;		On entry : 0/0
  3510 ;;		On exit  : 0/0
  3511 ;;		Unchanged: 0/0
  3512 ;; Data sizes:     COMMON   BANK0   BANK1   BANK2   BANK3   BANK4   BANK5
  3513 ;;      Params:         0       0       0       0       0       0       0
  3514 ;;      Locals:         0       8       0       0       0       0       0
  3515 ;;      Temps:          2       0       0       0       0       0       0
  3516 ;;      Totals:         2       8       0       0       0       0       0
  3517 ;;Total ram usage:       10 bytes
  3518 ;; Hardware stack levels used: 1
  3519 ;; Hardware stack levels required when called: 2
  3520 ;; This function calls:
  3521 ;;		_eeprom_read
  3522 ;; This function is called by:
  3523 ;;		_init
  3524 ;; This function uses a non-reentrant model
  3525 ;;
  3526                           
  3527     06AC                     _init_EEPROM:	
  3528                           ;psect for function _init_EEPROM
  3529                           
  3530     06AC                     l2545:	
  3531                           ;incstack = 0
  3532                           ; Regs used in _init_EEPROM: [wreg+status,2+status,0+pclath+cstack]
  3533                           
  3534     06AC                     l2547:
  3535                           
  3536                           ;main.c: 362:     max_lower_byte_rd = (uint8_t)eeprom_read(0);
  3537     06AC  3000               	movlw	0
  3538     06AD  318F  2707  3186   	fcall	_eeprom_read
  3539     06B0  00F5               	movwf	??_init_EEPROM
  3540     06B1  01F6               	clrf	??_init_EEPROM+1
  3541     06B2  0875               	movf	??_init_EEPROM,w
  3542     06B3  0020               	movlb	0	; select bank0
  3543     06B4  00A4               	movwf	init_EEPROM@max_lower_byte_rd
  3544     06B5  0876               	movf	??_init_EEPROM+1,w
  3545     06B6  00A5               	movwf	init_EEPROM@max_lower_byte_rd+1
  3546     06B7                     l2549:
  3547                           
  3548                           ;main.c: 363:     max_upper_byte_rd = (uint8_t)eeprom_read(1);
  3549     06B7  3001               	movlw	1
  3550     06B8  318F  2707  3186   	fcall	_eeprom_read
  3551     06BB  00F5               	movwf	??_init_EEPROM
  3552     06BC  01F6               	clrf	??_init_EEPROM+1
  3553     06BD  0875               	movf	??_init_EEPROM,w
  3554     06BE  0020               	movlb	0	; select bank0
  3555     06BF  00A6               	movwf	init_EEPROM@max_upper_byte_rd
  3556     06C0  0876               	movf	??_init_EEPROM+1,w
  3557     06C1  00A7               	movwf	init_EEPROM@max_upper_byte_rd+1
  3558     06C2                     l2551:
  3559                           
  3560                           ;main.c: 364:     max_value = (uint16_t)((max_upper_byte_rd << 8) | max_lower_byte_rd) ;
  3561     06C2  0826               	movf	init_EEPROM@max_upper_byte_rd,w
  3562     06C3  00F6               	movwf	??_init_EEPROM+1
  3563     06C4  01F5               	clrf	??_init_EEPROM
  3564     06C5  0824               	movf	init_EEPROM@max_lower_byte_rd,w
  3565     06C6  0475               	iorwf	??_init_EEPROM,w
  3566     06C7  00E6               	movwf	_max_value
  3567     06C8  0825               	movf	init_EEPROM@max_lower_byte_rd+1,w
  3568     06C9  0476               	iorwf	??_init_EEPROM+1,w
  3569     06CA  00E7               	movwf	_max_value+1
  3570     06CB                     l2553:
  3571                           
  3572                           ;main.c: 366:     last_value_status = (uint8_t)eeprom_read(3);
  3573     06CB  3003               	movlw	3
  3574     06CC  318F  2707  3186   	fcall	_eeprom_read
  3575     06CF  0020               	movlb	0	; select bank0
  3576     06D0  00EE               	movwf	_last_value_status
  3577     06D1                     l2555:
  3578                           
  3579                           ;main.c: 369:     if( last_value_status == 0x3F )
  3580     06D1  303F               	movlw	63
  3581     06D2  066E               	xorwf	_last_value_status,w
  3582     06D3  1D03               	btfss	3,2
  3583     06D4  2ED6               	goto	u2981
  3584     06D5  2ED7               	goto	u2980
  3585     06D6                     u2981:
  3586     06D6  2EF6               	goto	l2561
  3587     06D7                     u2980:
  3588     06D7                     l2557:
  3589                           
  3590                           ;main.c: 370:     {;main.c: 371:         last_lower_byte_rd = (uint8_t)eeprom_read(4);
  3591     06D7  3004               	movlw	4
  3592     06D8  318F  2707  3186   	fcall	_eeprom_read
  3593     06DB  00F5               	movwf	??_init_EEPROM
  3594     06DC  01F6               	clrf	??_init_EEPROM+1
  3595     06DD  0875               	movf	??_init_EEPROM,w
  3596     06DE  0020               	movlb	0	; select bank0
  3597     06DF  00A0               	movwf	init_EEPROM@last_lower_byte_rd
  3598     06E0  0876               	movf	??_init_EEPROM+1,w
  3599     06E1  00A1               	movwf	init_EEPROM@last_lower_byte_rd+1
  3600                           
  3601                           ;main.c: 372:         last_upper_byte_rd = (uint8_t)eeprom_read(5);
  3602     06E2  3005               	movlw	5
  3603     06E3  318F  2707  3186   	fcall	_eeprom_read
  3604     06E6  00F5               	movwf	??_init_EEPROM
  3605     06E7  01F6               	clrf	??_init_EEPROM+1
  3606     06E8  0875               	movf	??_init_EEPROM,w
  3607     06E9  0020               	movlb	0	; select bank0
  3608     06EA  00A2               	movwf	init_EEPROM@last_upper_byte_rd
  3609     06EB  0876               	movf	??_init_EEPROM+1,w
  3610     06EC  00A3               	movwf	init_EEPROM@last_upper_byte_rd+1
  3611     06ED                     l2559:
  3612                           
  3613                           ;main.c: 373:         last_value = (uint16_t)((last_upper_byte_rd << 8) | last_lower_byt
      +                          e_rd) ;
  3614     06ED  0822               	movf	init_EEPROM@last_upper_byte_rd,w
  3615     06EE  00F6               	movwf	??_init_EEPROM+1
  3616     06EF  01F5               	clrf	??_init_EEPROM
  3617     06F0  0820               	movf	init_EEPROM@last_lower_byte_rd,w
  3618     06F1  0475               	iorwf	??_init_EEPROM,w
  3619     06F2  00E2               	movwf	_last_value
  3620     06F3  0821               	movf	init_EEPROM@last_lower_byte_rd+1,w
  3621     06F4  0476               	iorwf	??_init_EEPROM+1,w
  3622     06F5  00E3               	movwf	_last_value+1
  3623     06F6                     l2561:
  3624                           
  3625                           ;main.c: 376:     if ( last_value_status == 0xAA )
  3626     06F6  30AA               	movlw	170
  3627     06F7  066E               	xorwf	_last_value_status,w
  3628     06F8  1D03               	btfss	3,2
  3629     06F9  2EFB               	goto	u2991
  3630     06FA  2EFC               	goto	u2990
  3631     06FB                     u2991:
  3632     06FB  2EFE               	goto	l163
  3633     06FC                     u2990:
  3634     06FC                     l2563:
  3635                           
  3636                           ;main.c: 377:     {;main.c: 378:        last_value = 0;
  3637     06FC  01E2               	clrf	_last_value
  3638     06FD  01E3               	clrf	_last_value+1
  3639     06FE                     l163:
  3640     06FE  0008               	return
  3641     06FF                     __end_of_init_EEPROM:
  3642                           
  3643                           	psect	text12
  3644     0F07                     __ptext12:	
  3645 ;; *************** function _eeprom_read *****************
  3646 ;; Defined at:
  3647 ;;		line 6 in file "/Applications/microchip/xc8/v2.46/pic/sources/c99/pic/__eeread.c"
  3648 ;; Parameters:    Size  Location     Type
  3649 ;;  addr            1    wreg     unsigned char 
  3650 ;; Auto vars:     Size  Location     Type
  3651 ;;  addr            1    4[COMMON] unsigned char 
  3652 ;; Return value:  Size  Location     Type
  3653 ;;                  1    wreg      unsigned char 
  3654 ;; Registers used:
  3655 ;;		wreg, status,2, status,0
  3656 ;; Tracked objects:
  3657 ;;		On entry : 0/0
  3658 ;;		On exit  : 0/0
  3659 ;;		Unchanged: 0/0
  3660 ;; Data sizes:     COMMON   BANK0   BANK1   BANK2   BANK3   BANK4   BANK5
  3661 ;;      Params:         0       0       0       0       0       0       0
  3662 ;;      Locals:         1       0       0       0       0       0       0
  3663 ;;      Temps:          3       0       0       0       0       0       0
  3664 ;;      Totals:         4       0       0       0       0       0       0
  3665 ;;Total ram usage:        4 bytes
  3666 ;; Hardware stack levels used: 1
  3667 ;; Hardware stack levels required when called: 1
  3668 ;; This function calls:
  3669 ;;		Nothing
  3670 ;; This function is called by:
  3671 ;;		_init_EEPROM
  3672 ;; This function uses a non-reentrant model
  3673 ;;
  3674                           
  3675     0F07                     _eeprom_read:	
  3676                           ;psect for function _eeprom_read
  3677                           
  3678                           
  3679                           ;incstack = 0
  3680                           ; Regs used in _eeprom_read: [wreg+status,2+status,0]
  3681                           ;eeprom_read@addr stored from wreg
  3682     0F07  00F4               	movwf	eeprom_read@addr
  3683     0F08                     l373:	
  3684                           ;/Applications/microchip/xc8/v2.46/pic/sources/c99/pic/__eeread.c: 6: eeprom_read(unsign
      +                          ed char addr);/Applications/microchip/xc8/v2.46/pic/sources/c99/pic/__eeread.c: 7: {;/Ap
      +                          plications/microchip/xc8/v2.46/pic/sources/c99/pic/__eeread.c: 8:  do
  3685                           
  3686     0F08  0064               	clrwdt	;# 
  3687     0F09  0023               	movlb	3	; select bank3
  3688     0F0A  1895               	btfsc	21,1	;volsfr
  3689     0F0B  2F0D               	goto	u2941
  3690     0F0C  2F0E               	goto	u2940
  3691     0F0D                     u2941:
  3692     0F0D  2F08               	goto	l373
  3693     0F0E                     u2940:
  3694     0F0E                     l2491:
  3695                           
  3696                           ;/Applications/microchip/xc8/v2.46/pic/sources/c99/pic/__eeread.c: 18:  return ( EEADR =
      +                           addr, EECON1 &= 0x3F, EECON1bits.RD = 1, EEDATA);
  3697     0F0E  0874               	movf	eeprom_read@addr,w
  3698     0F0F  00F1               	movwf	??_eeprom_read
  3699     0F10  01F2               	clrf	??_eeprom_read+1
  3700     0F11  0871               	movf	??_eeprom_read,w
  3701     0F12  0091               	movwf	17	;volatile
  3702     0F13  0872               	movf	??_eeprom_read+1,w
  3703     0F14  0092               	movwf	18	;volatile
  3704     0F15  303F               	movlw	63
  3705     0F16  00F3               	movwf	??_eeprom_read+2
  3706     0F17  0873               	movf	??_eeprom_read+2,w
  3707     0F18  0595               	andwf	21,f	;volsfr
  3708     0F19  1415               	bsf	21,0	;volsfr
  3709     0F1A  0813               	movf	19,w	;volatile
  3710     0F1B                     l375:
  3711     0F1B  0008               	return
  3712     0F1C                     __end_of_eeprom_read:
  3713                           
  3714                           	psect	text13
  3715     0EF3                     __ptext13:	
  3716 ;; *************** function _initPwm *****************
  3717 ;; Defined at:
  3718 ;;		line 95 in file "main.c"
  3719 ;; Parameters:    Size  Location     Type
  3720 ;;		None
  3721 ;; Auto vars:     Size  Location     Type
  3722 ;;		None
  3723 ;; Return value:  Size  Location     Type
  3724 ;;                  1    wreg      void 
  3725 ;; Registers used:
  3726 ;;		wreg, status,2, status,0, pclath, cstack
  3727 ;; Tracked objects:
  3728 ;;		On entry : 0/0
  3729 ;;		On exit  : 0/0
  3730 ;;		Unchanged: 0/0
  3731 ;; Data sizes:     COMMON   BANK0   BANK1   BANK2   BANK3   BANK4   BANK5
  3732 ;;      Params:         0       0       0       0       0       0       0
  3733 ;;      Locals:         0       0       0       0       0       0       0
  3734 ;;      Temps:          0       0       0       0       0       0       0
  3735 ;;      Totals:         0       0       0       0       0       0       0
  3736 ;;Total ram usage:        0 bytes
  3737 ;; Hardware stack levels used: 1
  3738 ;; Hardware stack levels required when called: 2
  3739 ;; This function calls:
  3740 ;;		_load_pwm
  3741 ;; This function is called by:
  3742 ;;		_init
  3743 ;; This function uses a non-reentrant model
  3744 ;;
  3745                           
  3746     0EF3                     _initPwm:	
  3747                           ;psect for function _initPwm
  3748                           
  3749     0EF3                     l2515:	
  3750                           ;incstack = 0
  3751                           ; Regs used in _initPwm: [wreg+status,2+status,0+pclath+cstack]
  3752                           
  3753                           
  3754                           ;main.c: 98:     CCP5CON = 0;
  3755     0EF3  0026               	movlb	6	; select bank6
  3756     0EF4  019E               	clrf	30	;volatile
  3757                           
  3758                           ;main.c: 99:     TMR2 = 0;
  3759     0EF5  0020               	movlb	0	; select bank0
  3760     0EF6  019A               	clrf	26	;volatile
  3761     0EF7                     l2517:
  3762                           
  3763                           ;main.c: 106:     PR2 = (uint8_t)((250000/(4*250 )) - 1);
  3764     0EF7  30F9               	movlw	249
  3765     0EF8  009B               	movwf	27	;volatile
  3766     0EF9                     l2519:
  3767                           
  3768                           ;main.c: 107:     CCP5CON = 0x0C;
  3769     0EF9  300C               	movlw	12
  3770     0EFA  0026               	movlb	6	; select bank6
  3771     0EFB  009E               	movwf	30	;volatile
  3772     0EFC                     l2521:
  3773                           
  3774                           ;main.c: 108:     TMR2IF = 0;
  3775     0EFC  0020               	movlb	0	; select bank0
  3776     0EFD  1091               	bcf	17,1	;volatile
  3777     0EFE                     l2523:
  3778                           
  3779                           ;main.c: 109:     TMR2IE = 0;
  3780     0EFE  0021               	movlb	1	; select bank1
  3781     0EFF  1091               	bcf	17,1	;volatile
  3782     0F00                     l2525:
  3783                           
  3784                           ;main.c: 110:     load_pwm(0);
  3785     0F00  3000               	movlw	0
  3786     0F01  318F  274E  318E   	fcall	_load_pwm
  3787     0F04                     l2527:
  3788                           
  3789                           ;main.c: 111:     TRISA4 = 0;
  3790     0F04  0021               	movlb	1	; select bank1
  3791     0F05  120C               	bcf	12,4	;volatile
  3792     0F06                     l85:
  3793     0F06  0008               	return
  3794     0F07                     __end_of_initPwm:
  3795                           
  3796                           	psect	text14
  3797     0F4E                     __ptext14:	
  3798 ;; *************** function _load_pwm *****************
  3799 ;; Defined at:
  3800 ;;		line 73 in file "main.c"
  3801 ;; Parameters:    Size  Location     Type
  3802 ;;  pwm_value       1    wreg     unsigned char 
  3803 ;; Auto vars:     Size  Location     Type
  3804 ;;  pwm_value       1    5[COMMON] unsigned char 
  3805 ;;  msb             1    4[COMMON] unsigned char 
  3806 ;;  lsb             1    3[COMMON] unsigned char 
  3807 ;; Return value:  Size  Location     Type
  3808 ;;                  1    wreg      void 
  3809 ;; Registers used:
  3810 ;;		wreg, status,2, status,0
  3811 ;; Tracked objects:
  3812 ;;		On entry : 0/0
  3813 ;;		On exit  : 0/0
  3814 ;;		Unchanged: 0/0
  3815 ;; Data sizes:     COMMON   BANK0   BANK1   BANK2   BANK3   BANK4   BANK5
  3816 ;;      Params:         0       0       0       0       0       0       0
  3817 ;;      Locals:         3       0       0       0       0       0       0
  3818 ;;      Temps:          2       0       0       0       0       0       0
  3819 ;;      Totals:         5       0       0       0       0       0       0
  3820 ;;Total ram usage:        5 bytes
  3821 ;; Hardware stack levels used: 1
  3822 ;; Hardware stack levels required when called: 1
  3823 ;; This function calls:
  3824 ;;		Nothing
  3825 ;; This function is called by:
  3826 ;;		_initPwm
  3827 ;;		_main
  3828 ;; This function uses a non-reentrant model
  3829 ;;
  3830                           
  3831     0F4E                     _load_pwm:	
  3832                           ;psect for function _load_pwm
  3833                           
  3834                           
  3835                           ;incstack = 0
  3836                           ; Regs used in _load_pwm: [wreg+status,2+status,0]
  3837                           ;load_pwm@pwm_value stored from wreg
  3838     0F4E  00F5               	movwf	load_pwm@pwm_value
  3839     0F4F                     l2409:
  3840                           
  3841                           ;main.c: 73: void load_pwm(uint8_t pwm_value);main.c: 74: {;main.c: 75:     unsigned cha
      +                          r lsb,msb;;main.c: 77:     lsb = (pwm_value & 0x0003);
  3842     0F4F  0875               	movf	load_pwm@pwm_value,w
  3843     0F50  3903               	andlw	3
  3844     0F51  00F3               	movwf	load_pwm@lsb
  3845     0F52                     l2411:
  3846                           
  3847                           ;main.c: 78:     CCP5CON |= (lsb << 5);
  3848     0F52  0873               	movf	load_pwm@lsb,w	;volatile
  3849     0F53  00F1               	movwf	??_load_pwm
  3850     0F54  3004               	movlw	4
  3851     0F55                     u2775:
  3852     0F55  35F1               	lslf	??_load_pwm,f
  3853     0F56  3EFF               	addlw	-1
  3854     0F57  1D03               	skipz
  3855     0F58  2F55               	goto	u2775
  3856     0F59  3571               	lslf	??_load_pwm,w
  3857     0F5A  00F2               	movwf	??_load_pwm+1
  3858     0F5B  0872               	movf	??_load_pwm+1,w
  3859     0F5C  0026               	movlb	6	; select bank6
  3860     0F5D  049E               	iorwf	30,f	;volatile
  3861     0F5E                     l2413:
  3862                           
  3863                           ;main.c: 80:     msb = (unsigned char) (pwm_value >> 2);
  3864     0F5E  0875               	movf	load_pwm@pwm_value,w
  3865     0F5F  00F1               	movwf	??_load_pwm
  3866     0F60  3002               	movlw	2
  3867     0F61                     u2785:
  3868     0F61  36F1               	lsrf	??_load_pwm,f
  3869     0F62  0B89               	decfsz	9,f
  3870     0F63  2F61               	goto	u2785
  3871     0F64  0871               	movf	??_load_pwm,w
  3872     0F65  00F4               	movwf	load_pwm@msb
  3873     0F66                     l2415:
  3874                           
  3875                           ;main.c: 81:     CCPR5L = msb;
  3876     0F66  0874               	movf	load_pwm@msb,w
  3877     0F67  009C               	movwf	28	;volatile
  3878     0F68                     l2417:
  3879                           
  3880                           ;main.c: 83:     TMR2ON = 1;
  3881     0F68  0020               	movlb	0	; select bank0
  3882     0F69  151C               	bsf	28,2	;volatile
  3883     0F6A                     l2419:
  3884                           
  3885                           ;main.c: 86:     {;main.c: 87:         if( TMR2IF == 1 )
  3886     0F6A  1C91               	btfss	17,1	;volatile
  3887     0F6B  2F6D               	goto	u2791
  3888     0F6C  2F6E               	goto	u2790
  3889     0F6D                     u2791:
  3890     0F6D  2F6A               	goto	l2419
  3891     0F6E                     u2790:
  3892     0F6E                     l82:
  3893     0F6E  0008               	return
  3894     0F6F                     __end_of_load_pwm:
  3895                           
  3896                           	psect	text15
  3897     04FC                     __ptext15:	
  3898 ;; *************** function _check_and_set_max *****************
  3899 ;; Defined at:
  3900 ;;		line 383 in file "main.c"
  3901 ;; Parameters:    Size  Location     Type
  3902 ;;		None
  3903 ;; Auto vars:     Size  Location     Type
  3904 ;;  max_eeprom      2   17[BANK0 ] unsigned short 
  3905 ;;  max_upper_by    1   16[BANK0 ] unsigned char 
  3906 ;;  max_lower_by    1   14[BANK0 ] unsigned char 
  3907 ;;  some_value_s    1   19[BANK0 ] unsigned char 
  3908 ;;  max_value_se    1   15[BANK0 ] unsigned char 
  3909 ;; Return value:  Size  Location     Type
  3910 ;;                  1    wreg      void 
  3911 ;; Registers used:
  3912 ;;		wreg, fsr0l, fsr0h, status,2, status,0, pclath, cstack
  3913 ;; Tracked objects:
  3914 ;;		On entry : 0/0
  3915 ;;		On exit  : 0/0
  3916 ;;		Unchanged: 0/0
  3917 ;; Data sizes:     COMMON   BANK0   BANK1   BANK2   BANK3   BANK4   BANK5
  3918 ;;      Params:         0       0       0       0       0       0       0
  3919 ;;      Locals:         0       6       0       0       0       0       0
  3920 ;;      Temps:          0       2       0       0       0       0       0
  3921 ;;      Totals:         0       8       0       0       0       0       0
  3922 ;;Total ram usage:        8 bytes
  3923 ;; Hardware stack levels used: 1
  3924 ;; Hardware stack levels required when called: 5
  3925 ;; This function calls:
  3926 ;;		_display_SET_command
  3927 ;;		_display_digit
  3928 ;;		_eeprom_write
  3929 ;;		_get_and_set_decrement
  3930 ;;		_get_and_set_increment
  3931 ;;		_is_dec_switch_pressed
  3932 ;;		_is_inc_switch_pressed
  3933 ;; This function is called by:
  3934 ;;		_init
  3935 ;; This function uses a non-reentrant model
  3936 ;;
  3937                           
  3938     04FC                     _check_and_set_max:	
  3939                           ;psect for function _check_and_set_max
  3940                           
  3941     04FC                     l2565:	
  3942                           ;incstack = 0
  3943                           ; Regs used in _check_and_set_max: [wreg-fsr0h+status,2+status,0+pclath+cstack]
  3944                           
  3945                           
  3946                           ;main.c: 387:     uint8_t max_value_setting_selected = 0;
  3947     04FC  0020               	movlb	0	; select bank0
  3948     04FD  01AF               	clrf	check_and_set_max@max_value_setting_selected
  3949     04FE                     l2567:
  3950                           
  3951                           ;main.c: 389:     if (is_inc_switch_pressed())
  3952     04FE  318F  2735  3184   	fcall	_is_inc_switch_pressed
  3953     0501  3A00               	xorlw	0
  3954     0502  1903               	skipnz
  3955     0503  2D05               	goto	u3001
  3956     0504  2D06               	goto	u3000
  3957     0505                     u3001:
  3958     0505  2D22               	goto	l2577
  3959     0506                     u3000:
  3960     0506                     l2569:
  3961                           
  3962                           ;main.c: 390:     {;main.c: 391:         _delay((unsigned long)((5000)*(4000000/4000.0))
      +                          );
  3963     0506  301A               	movlw	26
  3964     0507  0020               	movlb	0	; select bank0
  3965     0508  00AD               	movwf	??_check_and_set_max+1
  3966     0509  305E               	movlw	94
  3967     050A  00AC               	movwf	??_check_and_set_max
  3968     050B  306E               	movlw	110
  3969     050C                     u3547:
  3970     050C  0B89               	decfsz	9,f
  3971     050D  2D0C               	goto	u3547
  3972     050E  0BAC               	decfsz	??_check_and_set_max,f
  3973     050F  2D0C               	goto	u3547
  3974     0510  0BAD               	decfsz	??_check_and_set_max+1,f
  3975     0511  2D0C               	goto	u3547
  3976     0512  0000               	nop
  3977                           
  3978                           ;main.c: 393:         while(is_inc_switch_pressed())
  3979     0513  2D1A               	goto	l2575
  3980     0514                     l2571:
  3981                           
  3982                           ;main.c: 394:         {;main.c: 396:            display_SET_command();
  3983     0514  318E  26C4  3184   	fcall	_display_SET_command
  3984     0517                     l2573:
  3985                           
  3986                           ;main.c: 397:            max_value_setting_selected = 1;
  3987     0517  0020               	movlb	0	; select bank0
  3988     0518  01AF               	clrf	check_and_set_max@max_value_setting_selected
  3989     0519  0AAF               	incf	check_and_set_max@max_value_setting_selected,f
  3990     051A                     l2575:
  3991                           
  3992                           ;main.c: 393:         while(is_inc_switch_pressed())
  3993     051A  318F  2735  3184   	fcall	_is_inc_switch_pressed
  3994     051D  3A00               	xorlw	0
  3995     051E  1D03               	skipz
  3996     051F  2D21               	goto	u3011
  3997     0520  2D22               	goto	u3010
  3998     0521                     u3011:
  3999     0521  2D14               	goto	l2571
  4000     0522                     u3010:
  4001     0522                     l2577:
  4002                           
  4003                           ;main.c: 403:     if(max_value_setting_selected)
  4004     0522  0020               	movlb	0	; select bank0
  4005     0523  082F               	movf	check_and_set_max@max_value_setting_selected,w
  4006     0524  1903               	btfsc	3,2
  4007     0525  2D27               	goto	u3021
  4008     0526  2D28               	goto	u3020
  4009     0527                     u3021:
  4010     0527  2D70               	goto	l177
  4011     0528                     u3020:
  4012     0528                     l2579:
  4013                           
  4014                           ;main.c: 404:     {;main.c: 406:         curr_value = 0;
  4015     0528  01E4               	clrf	_curr_value
  4016     0529  01E5               	clrf	_curr_value+1
  4017     052A                     l2581:
  4018                           
  4019                           ;main.c: 407:         max_value = 10000;
  4020     052A  3010               	movlw	16
  4021     052B  00E6               	movwf	_max_value
  4022     052C  3027               	movlw	39
  4023     052D  00E7               	movwf	_max_value+1
  4024     052E                     l2583:
  4025                           
  4026                           ;main.c: 409:         {;main.c: 410:             uint8_t some_value_set = 0;
  4027     052E  0020               	movlb	0	; select bank0
  4028     052F  01B3               	clrf	check_and_set_max@some_value_set
  4029     0530                     l2585:
  4030                           
  4031                           ;main.c: 412:             if(is_inc_switch_pressed())
  4032     0530  318F  2735  3184   	fcall	_is_inc_switch_pressed
  4033     0533  3A00               	xorlw	0
  4034     0534  1903               	skipnz
  4035     0535  2D37               	goto	u3031
  4036     0536  2D38               	goto	u3030
  4037     0537                     u3031:
  4038     0537  2D3E               	goto	l2591
  4039     0538                     u3030:
  4040     0538                     l2587:
  4041                           
  4042                           ;main.c: 413:             {;main.c: 414:                 get_and_set_increment();
  4043     0538  3185  25E2  3184   	fcall	_get_and_set_increment
  4044     053B                     l2589:
  4045                           
  4046                           ;main.c: 415:                 some_value_set = 1;
  4047     053B  0020               	movlb	0	; select bank0
  4048     053C  01B3               	clrf	check_and_set_max@some_value_set
  4049     053D  0AB3               	incf	check_and_set_max@some_value_set,f
  4050     053E                     l2591:
  4051                           
  4052                           ;main.c: 418:             if(is_dec_switch_pressed())
  4053     053E  318F  271C  3184   	fcall	_is_dec_switch_pressed
  4054     0541  3A00               	xorlw	0
  4055     0542  1903               	skipnz
  4056     0543  2D45               	goto	u3041
  4057     0544  2D46               	goto	u3040
  4058     0545                     u3041:
  4059     0545  2D4C               	goto	l173
  4060     0546                     u3040:
  4061     0546                     l2593:
  4062                           
  4063                           ;main.c: 419:             {;main.c: 420:                 get_and_set_decrement();
  4064     0546  3186  264E  3184   	fcall	_get_and_set_decrement
  4065     0549                     l2595:
  4066                           
  4067                           ;main.c: 421:                 some_value_set = 1;
  4068     0549  0020               	movlb	0	; select bank0
  4069     054A  01B3               	clrf	check_and_set_max@some_value_set
  4070     054B  0AB3               	incf	check_and_set_max@some_value_set,f
  4071     054C                     l173:	
  4072                           ;main.c: 422:             }
  4073                           
  4074                           
  4075                           ;main.c: 424:             display_digit(curr_value);
  4076     054C  0020               	movlb	0	; select bank0
  4077     054D  0865               	movf	_curr_value+1,w
  4078     054E  00A5               	movwf	display_digit@value+1
  4079     054F  0864               	movf	_curr_value,w
  4080     0550  00A4               	movwf	display_digit@value
  4081     0551  3184  2482  3184   	fcall	_display_digit
  4082     0554                     l2597:
  4083                           
  4084                           ;main.c: 426:             if (some_value_set)
  4085     0554  0020               	movlb	0	; select bank0
  4086     0555  0833               	movf	check_and_set_max@some_value_set,w
  4087     0556  1903               	btfsc	3,2
  4088     0557  2D59               	goto	u3051
  4089     0558  2D5A               	goto	u3050
  4090     0559                     u3051:
  4091     0559  2D2E               	goto	l2583
  4092     055A                     u3050:
  4093     055A                     l2599:
  4094                           
  4095                           ;main.c: 427:             {;main.c: 428:                 uint16_t max_eeprom = curr_valu
      +                          e;
  4096     055A  0865               	movf	_curr_value+1,w
  4097     055B  00B2               	movwf	check_and_set_max@max_eeprom+1
  4098     055C  0864               	movf	_curr_value,w
  4099     055D  00B1               	movwf	check_and_set_max@max_eeprom
  4100     055E                     l2601:
  4101     055E                     l2603:
  4102                           
  4103                           ;main.c: 431:                 max_lower_byte_wr = max_eeprom & 0xFF ;
  4104     055E  0831               	movf	check_and_set_max@max_eeprom,w
  4105     055F  00AE               	movwf	check_and_set_max@max_lower_byte_wr
  4106     0560                     l2605:
  4107                           
  4108                           ;main.c: 432:                 max_upper_byte_wr = (max_eeprom >> 8) & 0xFF ;
  4109     0560  0832               	movf	check_and_set_max@max_eeprom+1,w
  4110     0561  00B0               	movwf	check_and_set_max@max_upper_byte_wr
  4111     0562                     l2607:
  4112                           
  4113                           ;main.c: 433:                 eeprom_write(0,max_lower_byte_wr);
  4114     0562  082E               	movf	check_and_set_max@max_lower_byte_wr,w
  4115     0563  00F1               	movwf	eeprom_write@value
  4116     0564  3000               	movlw	0
  4117     0565  3187  27CD  3184   	fcall	_eeprom_write
  4118     0568                     l2609:
  4119                           
  4120                           ;main.c: 434:                 eeprom_write(1,max_upper_byte_wr);
  4121     0568  0020               	movlb	0	; select bank0
  4122     0569  0830               	movf	check_and_set_max@max_upper_byte_wr,w
  4123     056A  00F1               	movwf	eeprom_write@value
  4124     056B  3001               	movlw	1
  4125     056C  3187  27CD  3184   	fcall	_eeprom_write
  4126     056F                     l2611:
  4127     056F  2D2E               	goto	l2583
  4128     0570                     l177:
  4129     0570  0008               	return
  4130     0571                     __end_of_check_and_set_max:
  4131                           
  4132                           	psect	text16
  4133     05E2                     __ptext16:	
  4134 ;; *************** function _get_and_set_increment *****************
  4135 ;; Defined at:
  4136 ;;		line 280 in file "main.c"
  4137 ;; Parameters:    Size  Location     Type
  4138 ;;		None
  4139 ;; Auto vars:     Size  Location     Type
  4140 ;;  counter         2   10[BANK0 ] unsigned short 
  4141 ;; Return value:  Size  Location     Type
  4142 ;;                  1    wreg      void 
  4143 ;; Registers used:
  4144 ;;		wreg, fsr0l, fsr0h, status,2, status,0, pclath, cstack
  4145 ;; Tracked objects:
  4146 ;;		On entry : 0/0
  4147 ;;		On exit  : 0/0
  4148 ;;		Unchanged: 0/0
  4149 ;; Data sizes:     COMMON   BANK0   BANK1   BANK2   BANK3   BANK4   BANK5
  4150 ;;      Params:         0       0       0       0       0       0       0
  4151 ;;      Locals:         0       2       0       0       0       0       0
  4152 ;;      Temps:          0       0       0       0       0       0       0
  4153 ;;      Totals:         0       2       0       0       0       0       0
  4154 ;;Total ram usage:        2 bytes
  4155 ;; Hardware stack levels used: 1
  4156 ;; Hardware stack levels required when called: 4
  4157 ;; This function calls:
  4158 ;;		_display_digit
  4159 ;;		_is_inc_switch_pressed
  4160 ;;		_set_delay_and_display
  4161 ;; This function is called by:
  4162 ;;		_check_and_set_max
  4163 ;;		_main
  4164 ;; This function uses a non-reentrant model
  4165 ;;
  4166                           
  4167     05E2                     _get_and_set_increment:	
  4168                           ;psect for function _get_and_set_increment
  4169                           
  4170     05E2                     l2433:	
  4171                           ;incstack = 0
  4172                           ; Regs used in _get_and_set_increment: [wreg-fsr0h+status,2+status,0+pclath+cstack]
  4173                           
  4174                           
  4175                           ;main.c: 282:     uint16_t counter = 0 ;
  4176     05E2  0020               	movlb	0	; select bank0
  4177     05E3  01AA               	clrf	get_and_set_increment@counter
  4178     05E4  01AB               	clrf	get_and_set_increment@counter+1
  4179     05E5                     l2435:
  4180                           
  4181                           ;main.c: 286:         if(curr_value < max_value)
  4182     05E5  0020               	movlb	0	; select bank0
  4183     05E6  0867               	movf	_max_value+1,w
  4184     05E7  0265               	subwf	_curr_value+1,w
  4185     05E8  1D03               	skipz
  4186     05E9  2DEC               	goto	u2805
  4187     05EA  0866               	movf	_max_value,w
  4188     05EB  0264               	subwf	_curr_value,w
  4189     05EC                     u2805:
  4190     05EC  1803               	skipnc
  4191     05ED  2DEF               	goto	u2801
  4192     05EE  2DF0               	goto	u2800
  4193     05EF                     u2801:
  4194     05EF  2DF9               	goto	l2439
  4195     05F0                     u2800:
  4196     05F0                     l2437:
  4197                           
  4198                           ;main.c: 287:         {;main.c: 288:            curr_value += 1 ;counter += 1;
  4199     05F0  3001               	movlw	1
  4200     05F1  07E4               	addwf	_curr_value,f
  4201     05F2  3000               	movlw	0
  4202     05F3  3DE5               	addwfc	_curr_value+1,f
  4203     05F4  3001               	movlw	1
  4204     05F5  07AA               	addwf	get_and_set_increment@counter,f
  4205     05F6  3000               	movlw	0
  4206     05F7  3DAB               	addwfc	get_and_set_increment@counter+1,f
  4207                           
  4208                           ;main.c: 289:         }
  4209     05F8  2DFD               	goto	l141
  4210     05F9                     l2439:
  4211                           
  4212                           ;main.c: 291:         {;main.c: 292:            curr_value = max_value;
  4213     05F9  0867               	movf	_max_value+1,w
  4214     05FA  00E5               	movwf	_curr_value+1
  4215     05FB  0866               	movf	_max_value,w
  4216     05FC  00E4               	movwf	_curr_value
  4217     05FD                     l141:	
  4218                           ;main.c: 293:         }
  4219                           
  4220                           
  4221                           ;main.c: 295:         if(counter < 100)
  4222     05FD  3000               	movlw	0
  4223     05FE  022B               	subwf	get_and_set_increment@counter+1,w
  4224     05FF  3064               	movlw	100
  4225     0600  1903               	skipnz
  4226     0601  022A               	subwf	get_and_set_increment@counter,w
  4227     0602  1803               	skipnc
  4228     0603  2E05               	goto	u2811
  4229     0604  2E06               	goto	u2810
  4230     0605                     u2811:
  4231     0605  2E0D               	goto	l2443
  4232     0606                     u2810:
  4233     0606                     l2441:
  4234                           
  4235                           ;main.c: 296:         {;main.c: 297:            set_delay_and_display(counter);
  4236     0606  082B               	movf	get_and_set_increment@counter+1,w
  4237     0607  00A7               	movwf	set_delay_and_display@counter+1
  4238     0608  082A               	movf	get_and_set_increment@counter,w
  4239     0609  00A6               	movwf	set_delay_and_display@counter
  4240     060A  3187  274F  3185   	fcall	_set_delay_and_display
  4241     060D                     l2443:
  4242                           
  4243                           ;main.c: 300:         if(counter >= 100 && curr_value < max_value )
  4244     060D  3000               	movlw	0
  4245     060E  0020               	movlb	0	; select bank0
  4246     060F  022B               	subwf	get_and_set_increment@counter+1,w
  4247     0610  3064               	movlw	100
  4248     0611  1903               	skipnz
  4249     0612  022A               	subwf	get_and_set_increment@counter,w
  4250     0613  1C03               	skipc
  4251     0614  2E16               	goto	u2821
  4252     0615  2E17               	goto	u2820
  4253     0616                     u2821:
  4254     0616  2E2D               	goto	l2451
  4255     0617                     u2820:
  4256     0617                     l2445:
  4257     0617  0867               	movf	_max_value+1,w
  4258     0618  0265               	subwf	_curr_value+1,w
  4259     0619  1D03               	skipz
  4260     061A  2E1D               	goto	u2835
  4261     061B  0866               	movf	_max_value,w
  4262     061C  0264               	subwf	_curr_value,w
  4263     061D                     u2835:
  4264     061D  1803               	skipnc
  4265     061E  2E20               	goto	u2831
  4266     061F  2E21               	goto	u2830
  4267     0620                     u2831:
  4268     0620  2E2D               	goto	l2451
  4269     0621                     u2830:
  4270     0621                     l2447:
  4271                           
  4272                           ;main.c: 301:         {;main.c: 302:            curr_value += 3;
  4273     0621  3003               	movlw	3
  4274     0622  07E4               	addwf	_curr_value,f
  4275     0623  3000               	movlw	0
  4276     0624  3DE5               	addwfc	_curr_value+1,f
  4277     0625                     l2449:
  4278                           
  4279                           ;main.c: 303:            display_digit(curr_value);
  4280     0625  0865               	movf	_curr_value+1,w
  4281     0626  00A5               	movwf	display_digit@value+1
  4282     0627  0864               	movf	_curr_value,w
  4283     0628  00A4               	movwf	display_digit@value
  4284     0629  3184  2482  3185   	fcall	_display_digit
  4285                           
  4286                           ;main.c: 304:         }
  4287     062C  2E45               	goto	l2459
  4288     062D                     l2451:
  4289     062D  3001               	movlw	1
  4290     062E  022B               	subwf	get_and_set_increment@counter+1,w
  4291     062F  302C               	movlw	44
  4292     0630  1903               	skipnz
  4293     0631  022A               	subwf	get_and_set_increment@counter,w
  4294     0632  1C03               	skipc
  4295     0633  2E35               	goto	u2841
  4296     0634  2E36               	goto	u2840
  4297     0635                     u2841:
  4298     0635  2E45               	goto	l2459
  4299     0636                     u2840:
  4300     0636                     l2453:
  4301     0636  0867               	movf	_max_value+1,w
  4302     0637  0265               	subwf	_curr_value+1,w
  4303     0638  1D03               	skipz
  4304     0639  2E3C               	goto	u2855
  4305     063A  0866               	movf	_max_value,w
  4306     063B  0264               	subwf	_curr_value,w
  4307     063C                     u2855:
  4308     063C  1803               	skipnc
  4309     063D  2E3F               	goto	u2851
  4310     063E  2E40               	goto	u2850
  4311     063F                     u2851:
  4312     063F  2E45               	goto	l2459
  4313     0640                     u2850:
  4314     0640                     l2455:
  4315                           
  4316                           ;main.c: 306:         {;main.c: 307:             curr_value += 5;
  4317     0640  3005               	movlw	5
  4318     0641  07E4               	addwf	_curr_value,f
  4319     0642  3000               	movlw	0
  4320     0643  3DE5               	addwfc	_curr_value+1,f
  4321     0644  2E25               	goto	l2449
  4322     0645                     l2459:
  4323                           
  4324                           ;main.c: 313:     }while(is_inc_switch_pressed());
  4325     0645  318F  2735  3185   	fcall	_is_inc_switch_pressed
  4326     0648  3A00               	xorlw	0
  4327     0649  1D03               	skipz
  4328     064A  2E4C               	goto	u2861
  4329     064B  2E4D               	goto	u2860
  4330     064C                     u2861:
  4331     064C  2DE5               	goto	l2435
  4332     064D                     u2860:
  4333     064D                     l147:
  4334     064D  0008               	return
  4335     064E                     __end_of_get_and_set_increment:
  4336                           
  4337                           	psect	text17
  4338     0F35                     __ptext17:	
  4339 ;; *************** function _is_inc_switch_pressed *****************
  4340 ;; Defined at:
  4341 ;;		line 131 in file "main.c"
  4342 ;; Parameters:    Size  Location     Type
  4343 ;;		None
  4344 ;; Auto vars:     Size  Location     Type
  4345 ;;  switch_statu    1    2[COMMON] unsigned char 
  4346 ;; Return value:  Size  Location     Type
  4347 ;;                  1    wreg      unsigned char 
  4348 ;; Registers used:
  4349 ;;		wreg, status,2
  4350 ;; Tracked objects:
  4351 ;;		On entry : 0/0
  4352 ;;		On exit  : 0/0
  4353 ;;		Unchanged: 0/0
  4354 ;; Data sizes:     COMMON   BANK0   BANK1   BANK2   BANK3   BANK4   BANK5
  4355 ;;      Params:         0       0       0       0       0       0       0
  4356 ;;      Locals:         1       0       0       0       0       0       0
  4357 ;;      Temps:          1       0       0       0       0       0       0
  4358 ;;      Totals:         2       0       0       0       0       0       0
  4359 ;;Total ram usage:        2 bytes
  4360 ;; Hardware stack levels used: 1
  4361 ;; Hardware stack levels required when called: 1
  4362 ;; This function calls:
  4363 ;;		Nothing
  4364 ;; This function is called by:
  4365 ;;		_get_and_set_increment
  4366 ;;		_check_and_set_max
  4367 ;;		_set_factory_settings
  4368 ;;		_main
  4369 ;; This function uses a non-reentrant model
  4370 ;;
  4371                           
  4372     0F35                     _is_inc_switch_pressed:	
  4373                           ;psect for function _is_inc_switch_pressed
  4374                           
  4375     0F35                     l2363:	
  4376                           ;incstack = 0
  4377                           ; Regs used in _is_inc_switch_pressed: [wreg+status,2]
  4378                           
  4379                           
  4380                           ;main.c: 133:     uint8_t switch_status = 0;
  4381     0F35  01F2               	clrf	is_inc_switch_pressed@switch_status
  4382     0F36                     l2365:
  4383                           
  4384                           ;main.c: 135:     if(PORTBbits.RB4 == 0)
  4385     0F36  0020               	movlb	0	; select bank0
  4386     0F37  1A0D               	btfsc	13,4	;volatile
  4387     0F38  2F3A               	goto	u2701
  4388     0F39  2F3B               	goto	u2700
  4389     0F3A                     u2701:
  4390     0F3A  2F4C               	goto	l2375
  4391     0F3B                     u2700:
  4392     0F3B                     l2367:
  4393                           
  4394                           ;main.c: 136:     {;main.c: 138:         _delay((unsigned long)((20)*(4000000/4000.0)));
  4395     0F3B  301A               	movlw	26
  4396     0F3C  00F1               	movwf	??_is_inc_switch_pressed
  4397     0F3D  30F8               	movlw	248
  4398     0F3E                     u3557:
  4399     0F3E  0B89               	decfsz	9,f
  4400     0F3F  2F3E               	goto	u3557
  4401     0F40  0BF1               	decfsz	??_is_inc_switch_pressed,f
  4402     0F41  2F3E               	goto	u3557
  4403     0F42  3200               	nop2
  4404     0F43                     l2369:
  4405                           
  4406                           ;main.c: 140:         if(PORTBbits.RB4 == 0)
  4407     0F43  0020               	movlb	0	; select bank0
  4408     0F44  1A0D               	btfsc	13,4	;volatile
  4409     0F45  2F47               	goto	u2711
  4410     0F46  2F48               	goto	u2710
  4411     0F47                     u2711:
  4412     0F47  2F4B               	goto	l2373
  4413     0F48                     u2710:
  4414     0F48                     l2371:
  4415                           
  4416                           ;main.c: 141:         {;main.c: 142:             switch_status = 1 ;
  4417     0F48  01F2               	clrf	is_inc_switch_pressed@switch_status
  4418     0F49  0AF2               	incf	is_inc_switch_pressed@switch_status,f
  4419                           
  4420                           ;main.c: 143:         }
  4421     0F4A  2F4C               	goto	l2375
  4422     0F4B                     l2373:
  4423                           
  4424                           ;main.c: 145:         {;main.c: 146:             switch_status = 0 ;
  4425     0F4B  01F2               	clrf	is_inc_switch_pressed@switch_status
  4426     0F4C                     l2375:
  4427                           
  4428                           ;main.c: 150:     return switch_status ;
  4429     0F4C  0872               	movf	is_inc_switch_pressed@switch_status,w
  4430     0F4D                     l97:
  4431     0F4D  0008               	return
  4432     0F4E                     __end_of_is_inc_switch_pressed:
  4433                           
  4434                           	psect	text18
  4435     064E                     __ptext18:	
  4436 ;; *************** function _get_and_set_decrement *****************
  4437 ;; Defined at:
  4438 ;;		line 317 in file "main.c"
  4439 ;; Parameters:    Size  Location     Type
  4440 ;;		None
  4441 ;; Auto vars:     Size  Location     Type
  4442 ;;  counter         2   10[BANK0 ] unsigned short 
  4443 ;; Return value:  Size  Location     Type
  4444 ;;                  1    wreg      void 
  4445 ;; Registers used:
  4446 ;;		wreg, fsr0l, fsr0h, status,2, status,0, pclath, cstack
  4447 ;; Tracked objects:
  4448 ;;		On entry : 0/0
  4449 ;;		On exit  : 0/0
  4450 ;;		Unchanged: 0/0
  4451 ;; Data sizes:     COMMON   BANK0   BANK1   BANK2   BANK3   BANK4   BANK5
  4452 ;;      Params:         0       0       0       0       0       0       0
  4453 ;;      Locals:         0       2       0       0       0       0       0
  4454 ;;      Temps:          0       0       0       0       0       0       0
  4455 ;;      Totals:         0       2       0       0       0       0       0
  4456 ;;Total ram usage:        2 bytes
  4457 ;; Hardware stack levels used: 1
  4458 ;; Hardware stack levels required when called: 4
  4459 ;; This function calls:
  4460 ;;		_display_digit
  4461 ;;		_is_dec_switch_pressed
  4462 ;;		_set_delay_and_display
  4463 ;; This function is called by:
  4464 ;;		_check_and_set_max
  4465 ;;		_main
  4466 ;; This function uses a non-reentrant model
  4467 ;;
  4468                           
  4469     064E                     _get_and_set_decrement:	
  4470                           ;psect for function _get_and_set_decrement
  4471                           
  4472     064E                     l2461:	
  4473                           ;incstack = 0
  4474                           ; Regs used in _get_and_set_decrement: [wreg-fsr0h+status,2+status,0+pclath+cstack]
  4475                           
  4476                           
  4477                           ;main.c: 319:     uint16_t counter = 0;
  4478     064E  0020               	movlb	0	; select bank0
  4479     064F  01AA               	clrf	get_and_set_decrement@counter
  4480     0650  01AB               	clrf	get_and_set_decrement@counter+1
  4481     0651                     l2463:
  4482                           
  4483                           ;main.c: 322:         if(curr_value > 0)
  4484     0651  0020               	movlb	0	; select bank0
  4485     0652  0864               	movf	_curr_value,w
  4486     0653  0465               	iorwf	_curr_value+1,w
  4487     0654  1903               	btfsc	3,2
  4488     0655  2E57               	goto	u2871
  4489     0656  2E58               	goto	u2870
  4490     0657                     u2871:
  4491     0657  2E61               	goto	l2467
  4492     0658                     u2870:
  4493     0658                     l2465:
  4494                           
  4495                           ;main.c: 323:         {;main.c: 324:            curr_value -= 1 ;counter += 1;
  4496     0658  3001               	movlw	1
  4497     0659  02E4               	subwf	_curr_value,f
  4498     065A  3000               	movlw	0
  4499     065B  3BE5               	subwfb	_curr_value+1,f
  4500     065C  3001               	movlw	1
  4501     065D  07AA               	addwf	get_and_set_decrement@counter,f
  4502     065E  3000               	movlw	0
  4503     065F  3DAB               	addwfc	get_and_set_decrement@counter+1,f
  4504                           
  4505                           ;main.c: 325:         }
  4506     0660  2E63               	goto	l2469
  4507     0661                     l2467:
  4508                           
  4509                           ;main.c: 327:         {;main.c: 328:            curr_value = 0;
  4510     0661  01E4               	clrf	_curr_value
  4511     0662  01E5               	clrf	_curr_value+1
  4512     0663                     l2469:
  4513                           
  4514                           ;main.c: 331:         if(counter < 100)
  4515     0663  3000               	movlw	0
  4516     0664  022B               	subwf	get_and_set_decrement@counter+1,w
  4517     0665  3064               	movlw	100
  4518     0666  1903               	skipnz
  4519     0667  022A               	subwf	get_and_set_decrement@counter,w
  4520     0668  1803               	skipnc
  4521     0669  2E6B               	goto	u2881
  4522     066A  2E6C               	goto	u2880
  4523     066B                     u2881:
  4524     066B  2E73               	goto	l2473
  4525     066C                     u2880:
  4526     066C                     l2471:
  4527                           
  4528                           ;main.c: 332:         {;main.c: 333:            set_delay_and_display(counter);
  4529     066C  082B               	movf	get_and_set_decrement@counter+1,w
  4530     066D  00A7               	movwf	set_delay_and_display@counter+1
  4531     066E  082A               	movf	get_and_set_decrement@counter,w
  4532     066F  00A6               	movwf	set_delay_and_display@counter
  4533     0670  3187  274F  3186   	fcall	_set_delay_and_display
  4534     0673                     l2473:
  4535                           
  4536                           ;main.c: 336:         if(counter >= 100 && curr_value > 0 )
  4537     0673  3000               	movlw	0
  4538     0674  0020               	movlb	0	; select bank0
  4539     0675  022B               	subwf	get_and_set_decrement@counter+1,w
  4540     0676  3064               	movlw	100
  4541     0677  1903               	skipnz
  4542     0678  022A               	subwf	get_and_set_decrement@counter,w
  4543     0679  1C03               	skipc
  4544     067A  2E7C               	goto	u2891
  4545     067B  2E7D               	goto	u2890
  4546     067C                     u2891:
  4547     067C  2E8F               	goto	l2481
  4548     067D                     u2890:
  4549     067D                     l2475:
  4550     067D  0864               	movf	_curr_value,w
  4551     067E  0465               	iorwf	_curr_value+1,w
  4552     067F  1903               	btfsc	3,2
  4553     0680  2E82               	goto	u2901
  4554     0681  2E83               	goto	u2900
  4555     0682                     u2901:
  4556     0682  2E8F               	goto	l2481
  4557     0683                     u2900:
  4558     0683                     l2477:
  4559                           
  4560                           ;main.c: 337:         {;main.c: 338:            curr_value -= 3;
  4561     0683  3003               	movlw	3
  4562     0684  02E4               	subwf	_curr_value,f
  4563     0685  3000               	movlw	0
  4564     0686  3BE5               	subwfb	_curr_value+1,f
  4565     0687                     l2479:
  4566                           
  4567                           ;main.c: 339:            display_digit(curr_value);
  4568     0687  0865               	movf	_curr_value+1,w
  4569     0688  00A5               	movwf	display_digit@value+1
  4570     0689  0864               	movf	_curr_value,w
  4571     068A  00A4               	movwf	display_digit@value
  4572     068B  3184  2482  3186   	fcall	_display_digit
  4573                           
  4574                           ;main.c: 340:         }
  4575     068E  2EA3               	goto	l2489
  4576     068F                     l2481:
  4577     068F  3001               	movlw	1
  4578     0690  022B               	subwf	get_and_set_decrement@counter+1,w
  4579     0691  302C               	movlw	44
  4580     0692  1903               	skipnz
  4581     0693  022A               	subwf	get_and_set_decrement@counter,w
  4582     0694  1C03               	skipc
  4583     0695  2E97               	goto	u2911
  4584     0696  2E98               	goto	u2910
  4585     0697                     u2911:
  4586     0697  2EA3               	goto	l2489
  4587     0698                     u2910:
  4588     0698                     l2483:
  4589     0698  0864               	movf	_curr_value,w
  4590     0699  0465               	iorwf	_curr_value+1,w
  4591     069A  1903               	btfsc	3,2
  4592     069B  2E9D               	goto	u2921
  4593     069C  2E9E               	goto	u2920
  4594     069D                     u2921:
  4595     069D  2EA3               	goto	l2489
  4596     069E                     u2920:
  4597     069E                     l2485:
  4598                           
  4599                           ;main.c: 342:         {;main.c: 343:             curr_value -= 5;
  4600     069E  3005               	movlw	5
  4601     069F  02E4               	subwf	_curr_value,f
  4602     06A0  3000               	movlw	0
  4603     06A1  3BE5               	subwfb	_curr_value+1,f
  4604     06A2  2E87               	goto	l2479
  4605     06A3                     l2489:
  4606                           
  4607                           ;main.c: 350:     }while(is_dec_switch_pressed());
  4608     06A3  318F  271C  3186   	fcall	_is_dec_switch_pressed
  4609     06A6  3A00               	xorlw	0
  4610     06A7  1D03               	skipz
  4611     06A8  2EAA               	goto	u2931
  4612     06A9  2EAB               	goto	u2930
  4613     06AA                     u2931:
  4614     06AA  2E51               	goto	l2463
  4615     06AB                     u2930:
  4616     06AB                     l158:
  4617     06AB  0008               	return
  4618     06AC                     __end_of_get_and_set_decrement:
  4619                           
  4620                           	psect	text19
  4621     074F                     __ptext19:	
  4622 ;; *************** function _set_delay_and_display *****************
  4623 ;; Defined at:
  4624 ;;		line 265 in file "main.c"
  4625 ;; Parameters:    Size  Location     Type
  4626 ;;  counter         2    6[BANK0 ] unsigned short 
  4627 ;; Auto vars:     Size  Location     Type
  4628 ;;		None
  4629 ;; Return value:  Size  Location     Type
  4630 ;;                  1    wreg      void 
  4631 ;; Registers used:
  4632 ;;		wreg, fsr0l, fsr0h, status,2, status,0, pclath, cstack
  4633 ;; Tracked objects:
  4634 ;;		On entry : 0/0
  4635 ;;		On exit  : 0/0
  4636 ;;		Unchanged: 0/0
  4637 ;; Data sizes:     COMMON   BANK0   BANK1   BANK2   BANK3   BANK4   BANK5
  4638 ;;      Params:         0       2       0       0       0       0       0
  4639 ;;      Locals:         0       0       0       0       0       0       0
  4640 ;;      Temps:          0       2       0       0       0       0       0
  4641 ;;      Totals:         0       4       0       0       0       0       0
  4642 ;;Total ram usage:        4 bytes
  4643 ;; Hardware stack levels used: 1
  4644 ;; Hardware stack levels required when called: 3
  4645 ;; This function calls:
  4646 ;;		_display_digit
  4647 ;; This function is called by:
  4648 ;;		_get_and_set_increment
  4649 ;;		_get_and_set_decrement
  4650 ;; This function uses a non-reentrant model
  4651 ;;
  4652                           
  4653     074F                     _set_delay_and_display:	
  4654                           ;psect for function _set_delay_and_display
  4655                           
  4656     074F                     l2395:	
  4657                           ;incstack = 0
  4658                           ; Regs used in _set_delay_and_display: [wreg-fsr0h+status,2+status,0+pclath+cstack]
  4659                           
  4660                           
  4661                           ;main.c: 265: void set_delay_and_display(uint16_t counter );main.c: 266: {;main.c: 267: 
      +                              if(counter < 10)
  4662     074F  3000               	movlw	0
  4663     0750  0020               	movlb	0	; select bank0
  4664     0751  0227               	subwf	set_delay_and_display@counter+1,w
  4665     0752  300A               	movlw	10
  4666     0753  1903               	skipnz
  4667     0754  0226               	subwf	set_delay_and_display@counter,w
  4668     0755  1803               	skipnc
  4669     0756  2F58               	goto	u2741
  4670     0757  2F59               	goto	u2740
  4671     0758                     u2741:
  4672     0758  2F6E               	goto	l2401
  4673     0759                     u2740:
  4674     0759                     l2397:
  4675                           
  4676                           ;main.c: 268:     {;main.c: 269:         display_digit(curr_value);
  4677     0759  0865               	movf	_curr_value+1,w
  4678     075A  00A5               	movwf	display_digit@value+1
  4679     075B  0864               	movf	_curr_value,w
  4680     075C  00A4               	movwf	display_digit@value
  4681     075D  3184  2482  3187   	fcall	_display_digit
  4682     0760                     l2399:
  4683                           
  4684                           ;main.c: 270:         _delay((unsigned long)((200)*(4000000/4000.0)));
  4685     0760  3002               	movlw	2
  4686     0761  0020               	movlb	0	; select bank0
  4687     0762  00A9               	movwf	??_set_delay_and_display+1
  4688     0763  3004               	movlw	4
  4689     0764  00A8               	movwf	??_set_delay_and_display
  4690     0765  30BA               	movlw	186
  4691     0766                     u3567:
  4692     0766  0B89               	decfsz	9,f
  4693     0767  2F66               	goto	u3567
  4694     0768  0BA8               	decfsz	??_set_delay_and_display,f
  4695     0769  2F66               	goto	u3567
  4696     076A  0BA9               	decfsz	??_set_delay_and_display+1,f
  4697     076B  2F66               	goto	u3567
  4698     076C  0000               	nop
  4699                           
  4700                           ;main.c: 271:     }
  4701     076D  2F90               	goto	l136
  4702     076E                     l2401:
  4703     076E  3000               	movlw	0
  4704     076F  0227               	subwf	set_delay_and_display@counter+1,w
  4705     0770  300A               	movlw	10
  4706     0771  1903               	skipnz
  4707     0772  0226               	subwf	set_delay_and_display@counter,w
  4708     0773  1C03               	skipc
  4709     0774  2F76               	goto	u2751
  4710     0775  2F77               	goto	u2750
  4711     0776                     u2751:
  4712     0776  2F90               	goto	l136
  4713     0777                     u2750:
  4714     0777                     l2403:
  4715     0777  3000               	movlw	0
  4716     0778  0227               	subwf	set_delay_and_display@counter+1,w
  4717     0779  3064               	movlw	100
  4718     077A  1903               	skipnz
  4719     077B  0226               	subwf	set_delay_and_display@counter,w
  4720     077C  1803               	skipnc
  4721     077D  2F7F               	goto	u2761
  4722     077E  2F80               	goto	u2760
  4723     077F                     u2761:
  4724     077F  2F90               	goto	l136
  4725     0780                     u2760:
  4726     0780                     l2405:
  4727                           
  4728                           ;main.c: 273:     {;main.c: 274:         display_digit(curr_value);
  4729     0780  0865               	movf	_curr_value+1,w
  4730     0781  00A5               	movwf	display_digit@value+1
  4731     0782  0864               	movf	_curr_value,w
  4732     0783  00A4               	movwf	display_digit@value
  4733     0784  3184  2482  3187   	fcall	_display_digit
  4734     0787                     l2407:
  4735                           
  4736                           ;main.c: 275:         _delay((unsigned long)((50)*(4000000/4000.0)));
  4737     0787  3041               	movlw	65
  4738     0788  0020               	movlb	0	; select bank0
  4739     0789  00A8               	movwf	??_set_delay_and_display
  4740     078A  30EE               	movlw	238
  4741     078B                     u3577:
  4742     078B  0B89               	decfsz	9,f
  4743     078C  2F8B               	goto	u3577
  4744     078D  0BA8               	decfsz	??_set_delay_and_display,f
  4745     078E  2F8B               	goto	u3577
  4746     078F  0000               	nop
  4747     0790                     l136:
  4748     0790  0008               	return
  4749     0791                     __end_of_set_delay_and_display:
  4750                           
  4751                           	psect	text20
  4752     0482                     __ptext20:	
  4753 ;; *************** function _display_digit *****************
  4754 ;; Defined at:
  4755 ;;		line 241 in file "main.c"
  4756 ;; Parameters:    Size  Location     Type
  4757 ;;  value           2    4[BANK0 ] unsigned short 
  4758 ;; Auto vars:     Size  Location     Type
  4759 ;;		None
  4760 ;; Return value:  Size  Location     Type
  4761 ;;                  1    wreg      void 
  4762 ;; Registers used:
  4763 ;;		wreg, fsr0l, fsr0h, status,2, status,0, pclath, cstack
  4764 ;; Tracked objects:
  4765 ;;		On entry : 0/0
  4766 ;;		On exit  : 0/0
  4767 ;;		Unchanged: 0/0
  4768 ;; Data sizes:     COMMON   BANK0   BANK1   BANK2   BANK3   BANK4   BANK5
  4769 ;;      Params:         0       2       0       0       0       0       0
  4770 ;;      Locals:         0       0       0       0       0       0       0
  4771 ;;      Temps:          0       0       0       0       0       0       0
  4772 ;;      Totals:         0       2       0       0       0       0       0
  4773 ;;Total ram usage:        2 bytes
  4774 ;; Hardware stack levels used: 1
  4775 ;; Hardware stack levels required when called: 2
  4776 ;; This function calls:
  4777 ;;		___lwdiv
  4778 ;;		___lwmod
  4779 ;; This function is called by:
  4780 ;;		_set_delay_and_display
  4781 ;;		_get_and_set_increment
  4782 ;;		_get_and_set_decrement
  4783 ;;		_check_and_set_max
  4784 ;;		_init
  4785 ;;		_main
  4786 ;; This function uses a non-reentrant model
  4787 ;;
  4788                           
  4789     0482                     _display_digit:	
  4790                           ;psect for function _display_digit
  4791                           
  4792     0482                     l2361:	
  4793                           ;incstack = 0
  4794                           ; Regs used in _display_digit: [wreg-fsr0h+status,2+status,0+pclath+cstack]
  4795                           
  4796                           
  4797                           ;main.c: 241: void display_digit(uint16_t value);main.c: 242: {;main.c: 243:      digipo
      +                          s[0] = DisplayNum[(value % 10)];
  4798     0482  300A               	movlw	10
  4799     0483  0020               	movlb	0	; select bank0
  4800     0484  00A0               	movwf	___lwmod@divisor
  4801     0485  3000               	movlw	0
  4802     0486  00A1               	movwf	___lwmod@divisor+1
  4803     0487  0825               	movf	display_digit@value+1,w
  4804     0488  00A3               	movwf	___lwmod@dividend+1
  4805     0489  0824               	movf	display_digit@value,w
  4806     048A  00A2               	movwf	___lwmod@dividend
  4807     048B  318F  2792  3184   	fcall	___lwmod
  4808     048E  3000               	movlw	low _DisplayNum
  4809     048F  0020               	movlb	0	; select bank0
  4810     0490  0720               	addwf	?___lwmod,w
  4811     0491  0084               	movwf	4
  4812     0492  3010               	movlw	high _DisplayNum
  4813     0493  3D21               	addwfc	?___lwmod+1,w
  4814     0494  3880               	iorlw	128
  4815     0495  0085               	movwf	5
  4816     0496  0800               	movf	0,w	;code access
  4817     0497  00DA               	movwf	_digipos
  4818                           
  4819                           ;main.c: 244:      digipos[1] = DisplayNum[(value / 10) % 10];
  4820     0498  300A               	movlw	10
  4821     0499  00A0               	movwf	___lwmod@divisor
  4822     049A  3000               	movlw	0
  4823     049B  00A1               	movwf	___lwmod@divisor+1
  4824     049C  300A               	movlw	10
  4825     049D  00F1               	movwf	___lwdiv@divisor
  4826     049E  3000               	movlw	0
  4827     049F  00F2               	movwf	___lwdiv@divisor+1
  4828     04A0  0825               	movf	display_digit@value+1,w
  4829     04A1  00F4               	movwf	___lwdiv@dividend+1
  4830     04A2  0824               	movf	display_digit@value,w
  4831     04A3  00F3               	movwf	___lwdiv@dividend
  4832     04A4  3187  2791  3184   	fcall	___lwdiv
  4833     04A7  0872               	movf	?___lwdiv+1,w
  4834     04A8  0020               	movlb	0	; select bank0
  4835     04A9  00A3               	movwf	___lwmod@dividend+1
  4836     04AA  0871               	movf	?___lwdiv,w
  4837     04AB  00A2               	movwf	___lwmod@dividend
  4838     04AC  318F  2792  3184   	fcall	___lwmod
  4839     04AF  3000               	movlw	low _DisplayNum
  4840     04B0  0020               	movlb	0	; select bank0
  4841     04B1  0720               	addwf	?___lwmod,w
  4842     04B2  0084               	movwf	4
  4843     04B3  3010               	movlw	high _DisplayNum
  4844     04B4  3D21               	addwfc	?___lwmod+1,w
  4845     04B5  3880               	iorlw	128
  4846     04B6  0085               	movwf	5
  4847     04B7  0800               	movf	0,w	;code access
  4848     04B8  00DB               	movwf	_digipos+1
  4849                           
  4850                           ;main.c: 245:      digipos[2] = DisplayNum[(value / 100) % 10];
  4851     04B9  300A               	movlw	10
  4852     04BA  00A0               	movwf	___lwmod@divisor
  4853     04BB  3000               	movlw	0
  4854     04BC  00A1               	movwf	___lwmod@divisor+1
  4855     04BD  3064               	movlw	100
  4856     04BE  00F1               	movwf	___lwdiv@divisor
  4857     04BF  3000               	movlw	0
  4858     04C0  00F2               	movwf	___lwdiv@divisor+1
  4859     04C1  0825               	movf	display_digit@value+1,w
  4860     04C2  00F4               	movwf	___lwdiv@dividend+1
  4861     04C3  0824               	movf	display_digit@value,w
  4862     04C4  00F3               	movwf	___lwdiv@dividend
  4863     04C5  3187  2791  3184   	fcall	___lwdiv
  4864     04C8  0872               	movf	?___lwdiv+1,w
  4865     04C9  0020               	movlb	0	; select bank0
  4866     04CA  00A3               	movwf	___lwmod@dividend+1
  4867     04CB  0871               	movf	?___lwdiv,w
  4868     04CC  00A2               	movwf	___lwmod@dividend
  4869     04CD  318F  2792  3184   	fcall	___lwmod
  4870     04D0  3000               	movlw	low _DisplayNum
  4871     04D1  0020               	movlb	0	; select bank0
  4872     04D2  0720               	addwf	?___lwmod,w
  4873     04D3  0084               	movwf	4
  4874     04D4  3010               	movlw	high _DisplayNum
  4875     04D5  3D21               	addwfc	?___lwmod+1,w
  4876     04D6  3880               	iorlw	128
  4877     04D7  0085               	movwf	5
  4878     04D8  0800               	movf	0,w	;code access
  4879     04D9  00DC               	movwf	_digipos+2
  4880                           
  4881                           ;main.c: 246:      digipos[3] = DisplayNum[(value / 1000) % 10];
  4882     04DA  300A               	movlw	10
  4883     04DB  00A0               	movwf	___lwmod@divisor
  4884     04DC  3000               	movlw	0
  4885     04DD  00A1               	movwf	___lwmod@divisor+1
  4886     04DE  30E8               	movlw	232
  4887     04DF  00F1               	movwf	___lwdiv@divisor
  4888     04E0  3003               	movlw	3
  4889     04E1  00F2               	movwf	___lwdiv@divisor+1
  4890     04E2  0825               	movf	display_digit@value+1,w
  4891     04E3  00F4               	movwf	___lwdiv@dividend+1
  4892     04E4  0824               	movf	display_digit@value,w
  4893     04E5  00F3               	movwf	___lwdiv@dividend
  4894     04E6  3187  2791  3184   	fcall	___lwdiv
  4895     04E9  0872               	movf	?___lwdiv+1,w
  4896     04EA  0020               	movlb	0	; select bank0
  4897     04EB  00A3               	movwf	___lwmod@dividend+1
  4898     04EC  0871               	movf	?___lwdiv,w
  4899     04ED  00A2               	movwf	___lwmod@dividend
  4900     04EE  318F  2792  3184   	fcall	___lwmod
  4901     04F1  3000               	movlw	low _DisplayNum
  4902     04F2  0020               	movlb	0	; select bank0
  4903     04F3  0720               	addwf	?___lwmod,w
  4904     04F4  0084               	movwf	4
  4905     04F5  3010               	movlw	high _DisplayNum
  4906     04F6  3D21               	addwfc	?___lwmod+1,w
  4907     04F7  3880               	iorlw	128
  4908     04F8  0085               	movwf	5
  4909     04F9  0800               	movf	0,w	;code access
  4910     04FA  00DD               	movwf	_digipos+3
  4911     04FB                     l124:
  4912     04FB  0008               	return
  4913     04FC                     __end_of_display_digit:
  4914                           
  4915                           	psect	text21
  4916     0F92                     __ptext21:	
  4917 ;; *************** function ___lwmod *****************
  4918 ;; Defined at:
  4919 ;;		line 5 in file "/Applications/microchip/xc8/v2.46/pic/sources/c99/common/lwmod.c"
  4920 ;; Parameters:    Size  Location     Type
  4921 ;;  divisor         2    0[BANK0 ] unsigned int 
  4922 ;;  dividend        2    2[BANK0 ] unsigned int 
  4923 ;; Auto vars:     Size  Location     Type
  4924 ;;  counter         1   10[COMMON] unsigned char 
  4925 ;; Return value:  Size  Location     Type
  4926 ;;                  2    0[BANK0 ] unsigned int 
  4927 ;; Registers used:
  4928 ;;		wreg, status,2, status,0
  4929 ;; Tracked objects:
  4930 ;;		On entry : 0/0
  4931 ;;		On exit  : 0/0
  4932 ;;		Unchanged: 0/0
  4933 ;; Data sizes:     COMMON   BANK0   BANK1   BANK2   BANK3   BANK4   BANK5
  4934 ;;      Params:         0       4       0       0       0       0       0
  4935 ;;      Locals:         1       0       0       0       0       0       0
  4936 ;;      Temps:          1       0       0       0       0       0       0
  4937 ;;      Totals:         2       4       0       0       0       0       0
  4938 ;;Total ram usage:        6 bytes
  4939 ;; Hardware stack levels used: 1
  4940 ;; Hardware stack levels required when called: 1
  4941 ;; This function calls:
  4942 ;;		Nothing
  4943 ;; This function is called by:
  4944 ;;		_display_digit
  4945 ;; This function uses a non-reentrant model
  4946 ;;
  4947                           
  4948     0F92                     ___lwmod:	
  4949                           ;psect for function ___lwmod
  4950                           
  4951     0F92                     l2339:	
  4952                           ;incstack = 0
  4953                           ; Regs used in ___lwmod: [wreg+status,2+status,0]
  4954                           
  4955     0F92  0020               	movlb	0	; select bank0
  4956     0F93  0820               	movf	___lwmod@divisor,w
  4957     0F94  0421               	iorwf	___lwmod@divisor+1,w
  4958     0F95  1903               	btfsc	3,2
  4959     0F96  2F98               	goto	u2641
  4960     0F97  2F99               	goto	u2640
  4961     0F98                     u2641:
  4962     0F98  2FC2               	goto	l2357
  4963     0F99                     u2640:
  4964     0F99                     l2341:
  4965     0F99  01FA               	clrf	___lwmod@counter
  4966     0F9A  0AFA               	incf	___lwmod@counter,f
  4967     0F9B  2FA5               	goto	l2347
  4968     0F9C                     l2343:
  4969     0F9C  3001               	movlw	1
  4970     0F9D                     u2655:
  4971     0F9D  35A0               	lslf	___lwmod@divisor,f
  4972     0F9E  0DA1               	rlf	___lwmod@divisor+1,f
  4973     0F9F  0B89               	decfsz	9,f
  4974     0FA0  2F9D               	goto	u2655
  4975     0FA1                     l2345:
  4976     0FA1  3001               	movlw	1
  4977     0FA2  00F9               	movwf	??___lwmod
  4978     0FA3  0879               	movf	??___lwmod,w
  4979     0FA4  07FA               	addwf	___lwmod@counter,f
  4980     0FA5                     l2347:
  4981     0FA5  1FA1               	btfss	___lwmod@divisor+1,7
  4982     0FA6  2FA8               	goto	u2661
  4983     0FA7  2FA9               	goto	u2660
  4984     0FA8                     u2661:
  4985     0FA8  2F9C               	goto	l2343
  4986     0FA9                     u2660:
  4987     0FA9                     l2349:
  4988     0FA9  0821               	movf	___lwmod@divisor+1,w
  4989     0FAA  0223               	subwf	___lwmod@dividend+1,w
  4990     0FAB  1D03               	skipz
  4991     0FAC  2FAF               	goto	u2675
  4992     0FAD  0820               	movf	___lwmod@divisor,w
  4993     0FAE  0222               	subwf	___lwmod@dividend,w
  4994     0FAF                     u2675:
  4995     0FAF  1C03               	skipc
  4996     0FB0  2FB2               	goto	u2671
  4997     0FB1  2FB3               	goto	u2670
  4998     0FB2                     u2671:
  4999     0FB2  2FB7               	goto	l2353
  5000     0FB3                     u2670:
  5001     0FB3                     l2351:
  5002     0FB3  0820               	movf	___lwmod@divisor,w
  5003     0FB4  02A2               	subwf	___lwmod@dividend,f
  5004     0FB5  0821               	movf	___lwmod@divisor+1,w
  5005     0FB6  3BA3               	subwfb	___lwmod@dividend+1,f
  5006     0FB7                     l2353:
  5007     0FB7  3001               	movlw	1
  5008     0FB8                     u2685:
  5009     0FB8  36A1               	lsrf	___lwmod@divisor+1,f
  5010     0FB9  0CA0               	rrf	___lwmod@divisor,f
  5011     0FBA  0B89               	decfsz	9,f
  5012     0FBB  2FB8               	goto	u2685
  5013     0FBC                     l2355:
  5014     0FBC  3001               	movlw	1
  5015     0FBD  02FA               	subwf	___lwmod@counter,f
  5016     0FBE  1D03               	btfss	3,2
  5017     0FBF  2FC1               	goto	u2691
  5018     0FC0  2FC2               	goto	u2690
  5019     0FC1                     u2691:
  5020     0FC1  2FA9               	goto	l2349
  5021     0FC2                     u2690:
  5022     0FC2                     l2357:
  5023     0FC2  0823               	movf	___lwmod@dividend+1,w
  5024     0FC3  00A1               	movwf	?___lwmod+1
  5025     0FC4  0822               	movf	___lwmod@dividend,w
  5026     0FC5  00A0               	movwf	?___lwmod
  5027     0FC6                     l693:
  5028     0FC6  0008               	return
  5029     0FC7                     __end_of___lwmod:
  5030                           
  5031                           	psect	text22
  5032     0791                     __ptext22:	
  5033 ;; *************** function ___lwdiv *****************
  5034 ;; Defined at:
  5035 ;;		line 5 in file "/Applications/microchip/xc8/v2.46/pic/sources/c99/common/lwdiv.c"
  5036 ;; Parameters:    Size  Location     Type
  5037 ;;  divisor         2    1[COMMON] unsigned int 
  5038 ;;  dividend        2    3[COMMON] unsigned int 
  5039 ;; Auto vars:     Size  Location     Type
  5040 ;;  quotient        2    7[COMMON] unsigned int 
  5041 ;;  counter         1    6[COMMON] unsigned char 
  5042 ;; Return value:  Size  Location     Type
  5043 ;;                  2    1[COMMON] unsigned int 
  5044 ;; Registers used:
  5045 ;;		wreg, status,2, status,0
  5046 ;; Tracked objects:
  5047 ;;		On entry : 0/0
  5048 ;;		On exit  : 0/0
  5049 ;;		Unchanged: 0/0
  5050 ;; Data sizes:     COMMON   BANK0   BANK1   BANK2   BANK3   BANK4   BANK5
  5051 ;;      Params:         4       0       0       0       0       0       0
  5052 ;;      Locals:         3       0       0       0       0       0       0
  5053 ;;      Temps:          1       0       0       0       0       0       0
  5054 ;;      Totals:         8       0       0       0       0       0       0
  5055 ;;Total ram usage:        8 bytes
  5056 ;; Hardware stack levels used: 1
  5057 ;; Hardware stack levels required when called: 1
  5058 ;; This function calls:
  5059 ;;		Nothing
  5060 ;; This function is called by:
  5061 ;;		_map_value_to_pwm_resolution
  5062 ;;		_display_digit
  5063 ;; This function uses a non-reentrant model
  5064 ;;
  5065                           
  5066     0791                     ___lwdiv:	
  5067                           ;psect for function ___lwdiv
  5068                           
  5069     0791                     l2313:	
  5070                           ;incstack = 0
  5071                           ; Regs used in ___lwdiv: [wreg+status,2+status,0]
  5072                           
  5073     0791  01F7               	clrf	___lwdiv@quotient
  5074     0792  01F8               	clrf	___lwdiv@quotient+1
  5075     0793                     l2315:
  5076     0793  0871               	movf	___lwdiv@divisor,w
  5077     0794  0472               	iorwf	___lwdiv@divisor+1,w
  5078     0795  1903               	btfsc	3,2
  5079     0796  2F98               	goto	u2571
  5080     0797  2F99               	goto	u2570
  5081     0798                     u2571:
  5082     0798  2FC8               	goto	l2335
  5083     0799                     u2570:
  5084     0799                     l2317:
  5085     0799  01F6               	clrf	___lwdiv@counter
  5086     079A  0AF6               	incf	___lwdiv@counter,f
  5087     079B  2FA5               	goto	l2323
  5088     079C                     l2319:
  5089     079C  3001               	movlw	1
  5090     079D                     u2585:
  5091     079D  35F1               	lslf	___lwdiv@divisor,f
  5092     079E  0DF2               	rlf	___lwdiv@divisor+1,f
  5093     079F  0B89               	decfsz	9,f
  5094     07A0  2F9D               	goto	u2585
  5095     07A1                     l2321:
  5096     07A1  3001               	movlw	1
  5097     07A2  00F5               	movwf	??___lwdiv
  5098     07A3  0875               	movf	??___lwdiv,w
  5099     07A4  07F6               	addwf	___lwdiv@counter,f
  5100     07A5                     l2323:
  5101     07A5  1FF2               	btfss	___lwdiv@divisor+1,7
  5102     07A6  2FA8               	goto	u2591
  5103     07A7  2FA9               	goto	u2590
  5104     07A8                     u2591:
  5105     07A8  2F9C               	goto	l2319
  5106     07A9                     u2590:
  5107     07A9                     l2325:
  5108     07A9  3001               	movlw	1
  5109     07AA                     u2605:
  5110     07AA  35F7               	lslf	___lwdiv@quotient,f
  5111     07AB  0DF8               	rlf	___lwdiv@quotient+1,f
  5112     07AC  0B89               	decfsz	9,f
  5113     07AD  2FAA               	goto	u2605
  5114     07AE  0872               	movf	___lwdiv@divisor+1,w
  5115     07AF  0274               	subwf	___lwdiv@dividend+1,w
  5116     07B0  1D03               	skipz
  5117     07B1  2FB4               	goto	u2615
  5118     07B2  0871               	movf	___lwdiv@divisor,w
  5119     07B3  0273               	subwf	___lwdiv@dividend,w
  5120     07B4                     u2615:
  5121     07B4  1C03               	skipc
  5122     07B5  2FB7               	goto	u2611
  5123     07B6  2FB8               	goto	u2610
  5124     07B7                     u2611:
  5125     07B7  2FBD               	goto	l2331
  5126     07B8                     u2610:
  5127     07B8                     l2327:
  5128     07B8  0871               	movf	___lwdiv@divisor,w
  5129     07B9  02F3               	subwf	___lwdiv@dividend,f
  5130     07BA  0872               	movf	___lwdiv@divisor+1,w
  5131     07BB  3BF4               	subwfb	___lwdiv@dividend+1,f
  5132     07BC                     l2329:
  5133     07BC  1477               	bsf	___lwdiv@quotient,0
  5134     07BD                     l2331:
  5135     07BD  3001               	movlw	1
  5136     07BE                     u2625:
  5137     07BE  36F2               	lsrf	___lwdiv@divisor+1,f
  5138     07BF  0CF1               	rrf	___lwdiv@divisor,f
  5139     07C0  0B89               	decfsz	9,f
  5140     07C1  2FBE               	goto	u2625
  5141     07C2                     l2333:
  5142     07C2  3001               	movlw	1
  5143     07C3  02F6               	subwf	___lwdiv@counter,f
  5144     07C4  1D03               	btfss	3,2
  5145     07C5  2FC7               	goto	u2631
  5146     07C6  2FC8               	goto	u2630
  5147     07C7                     u2631:
  5148     07C7  2FA9               	goto	l2325
  5149     07C8                     u2630:
  5150     07C8                     l2335:
  5151     07C8  0878               	movf	___lwdiv@quotient+1,w
  5152     07C9  00F2               	movwf	?___lwdiv+1
  5153     07CA  0877               	movf	___lwdiv@quotient,w
  5154     07CB  00F1               	movwf	?___lwdiv
  5155     07CC                     l683:
  5156     07CC  0008               	return
  5157     07CD                     __end_of___lwdiv:
  5158                           
  5159                           	psect	text23
  5160     0F1C                     __ptext23:	
  5161 ;; *************** function _is_dec_switch_pressed *****************
  5162 ;; Defined at:
  5163 ;;		line 153 in file "main.c"
  5164 ;; Parameters:    Size  Location     Type
  5165 ;;		None
  5166 ;; Auto vars:     Size  Location     Type
  5167 ;;  switch_statu    1    2[COMMON] unsigned char 
  5168 ;; Return value:  Size  Location     Type
  5169 ;;                  1    wreg      unsigned char 
  5170 ;; Registers used:
  5171 ;;		wreg, status,2
  5172 ;; Tracked objects:
  5173 ;;		On entry : 0/0
  5174 ;;		On exit  : 0/0
  5175 ;;		Unchanged: 0/0
  5176 ;; Data sizes:     COMMON   BANK0   BANK1   BANK2   BANK3   BANK4   BANK5
  5177 ;;      Params:         0       0       0       0       0       0       0
  5178 ;;      Locals:         1       0       0       0       0       0       0
  5179 ;;      Temps:          1       0       0       0       0       0       0
  5180 ;;      Totals:         2       0       0       0       0       0       0
  5181 ;;Total ram usage:        2 bytes
  5182 ;; Hardware stack levels used: 1
  5183 ;; Hardware stack levels required when called: 1
  5184 ;; This function calls:
  5185 ;;		Nothing
  5186 ;; This function is called by:
  5187 ;;		_get_and_set_decrement
  5188 ;;		_check_and_set_max
  5189 ;;		_set_factory_settings
  5190 ;;		_main
  5191 ;; This function uses a non-reentrant model
  5192 ;;
  5193                           
  5194     0F1C                     _is_dec_switch_pressed:	
  5195                           ;psect for function _is_dec_switch_pressed
  5196                           
  5197     0F1C                     l2379:	
  5198                           ;incstack = 0
  5199                           ; Regs used in _is_dec_switch_pressed: [wreg+status,2]
  5200                           
  5201                           
  5202                           ;main.c: 155:     uint8_t switch_status = 0;
  5203     0F1C  01F2               	clrf	is_dec_switch_pressed@switch_status
  5204     0F1D                     l2381:
  5205                           
  5206                           ;main.c: 157:     if(PORTBbits.RB5 == 0)
  5207     0F1D  0020               	movlb	0	; select bank0
  5208     0F1E  1A8D               	btfsc	13,5	;volatile
  5209     0F1F  2F21               	goto	u2721
  5210     0F20  2F22               	goto	u2720
  5211     0F21                     u2721:
  5212     0F21  2F33               	goto	l2391
  5213     0F22                     u2720:
  5214     0F22                     l2383:
  5215                           
  5216                           ;main.c: 158:     {;main.c: 160:         _delay((unsigned long)((20)*(4000000/4000.0)));
  5217     0F22  301A               	movlw	26
  5218     0F23  00F1               	movwf	??_is_dec_switch_pressed
  5219     0F24  30F8               	movlw	248
  5220     0F25                     u3587:
  5221     0F25  0B89               	decfsz	9,f
  5222     0F26  2F25               	goto	u3587
  5223     0F27  0BF1               	decfsz	??_is_dec_switch_pressed,f
  5224     0F28  2F25               	goto	u3587
  5225     0F29  3200               	nop2
  5226     0F2A                     l2385:
  5227                           
  5228                           ;main.c: 161:         if(PORTBbits.RB5 == 0)
  5229     0F2A  0020               	movlb	0	; select bank0
  5230     0F2B  1A8D               	btfsc	13,5	;volatile
  5231     0F2C  2F2E               	goto	u2731
  5232     0F2D  2F2F               	goto	u2730
  5233     0F2E                     u2731:
  5234     0F2E  2F32               	goto	l2389
  5235     0F2F                     u2730:
  5236     0F2F                     l2387:
  5237                           
  5238                           ;main.c: 162:         {;main.c: 163:             switch_status = 1 ;
  5239     0F2F  01F2               	clrf	is_dec_switch_pressed@switch_status
  5240     0F30  0AF2               	incf	is_dec_switch_pressed@switch_status,f
  5241                           
  5242                           ;main.c: 164:         }
  5243     0F31  2F33               	goto	l2391
  5244     0F32                     l2389:
  5245                           
  5246                           ;main.c: 166:         {;main.c: 167:             switch_status = 0 ;
  5247     0F32  01F2               	clrf	is_dec_switch_pressed@switch_status
  5248     0F33                     l2391:
  5249                           
  5250                           ;main.c: 171:     return switch_status ;
  5251     0F33  0872               	movf	is_dec_switch_pressed@switch_status,w
  5252     0F34                     l103:
  5253     0F34  0008               	return
  5254     0F35                     __end_of_is_dec_switch_pressed:
  5255                           
  5256                           	psect	text24
  5257     07CD                     __ptext24:	
  5258 ;; *************** function _eeprom_write *****************
  5259 ;; Defined at:
  5260 ;;		line 6 in file "/Applications/microchip/xc8/v2.46/pic/sources/c99/pic/__eewrite.c"
  5261 ;; Parameters:    Size  Location     Type
  5262 ;;  addr            1    wreg     unsigned char 
  5263 ;;  value           1    1[COMMON] unsigned char 
  5264 ;; Auto vars:     Size  Location     Type
  5265 ;;  addr            1    4[COMMON] unsigned char 
  5266 ;; Return value:  Size  Location     Type
  5267 ;;                  1    wreg      void 
  5268 ;; Registers used:
  5269 ;;		wreg, status,2, status,0
  5270 ;; Tracked objects:
  5271 ;;		On entry : 0/0
  5272 ;;		On exit  : 0/0
  5273 ;;		Unchanged: 0/0
  5274 ;; Data sizes:     COMMON   BANK0   BANK1   BANK2   BANK3   BANK4   BANK5
  5275 ;;      Params:         1       0       0       0       0       0       0
  5276 ;;      Locals:         1       0       0       0       0       0       0
  5277 ;;      Temps:          2       0       0       0       0       0       0
  5278 ;;      Totals:         4       0       0       0       0       0       0
  5279 ;;Total ram usage:        4 bytes
  5280 ;; Hardware stack levels used: 1
  5281 ;; Hardware stack levels required when called: 1
  5282 ;; This function calls:
  5283 ;;		Nothing
  5284 ;; This function is called by:
  5285 ;;		_check_and_set_max
  5286 ;;		_set_factory_settings
  5287 ;;		_main
  5288 ;; This function uses a non-reentrant model
  5289 ;;
  5290                           
  5291     07CD                     _eeprom_write:	
  5292                           ;psect for function _eeprom_write
  5293                           
  5294                           
  5295                           ;incstack = 0
  5296                           ; Regs used in _eeprom_write: [wreg+status,2+status,0]
  5297                           ;eeprom_write@addr stored from wreg
  5298     07CD  00F4               	movwf	eeprom_write@addr
  5299     07CE                     l392:	
  5300                           ;/Applications/microchip/xc8/v2.46/pic/sources/c99/pic/__eewrite.c: 6: eeprom_write(unsi
      +                          gned char addr, unsigned char value);/Applications/microchip/xc8/v2.46/pic/sources/c99/p
      +                          ic/__eewrite.c: 7: {;/Applications/microchip/xc8/v2.46/pic/sources/c99/pic/__eewrite.c: 
      +                          8:  do{ while (EECON1bits.WR) { continue; } EEADR = (addr); EEDATA = (value); EECON1 &= 
      +                          0x3F; STATUSbits.CARRY = 0; if (INTCONbits.GIE) { STATUSbits.CARRY = 1; } INTCONbits.GIE
      +                           = 0; EECON1bits.WREN = 1; EECON2 = 0x55; EECON2 = 0xAA; EECON1bits.WR = 1; EECON1bits.W
      +                          REN = 0; if (STATUSbits.CARRY) { INTCONbits.GIE = 1; } } while (0);
  5301                           
  5302     07CE                     l393:
  5303     07CE  0023               	movlb	3	; select bank3
  5304     07CF  1895               	btfsc	21,1	;volsfr
  5305     07D0  2FD2               	goto	u2951
  5306     07D1  2FD3               	goto	u2950
  5307     07D2                     u2951:
  5308     07D2  2FCE               	goto	l393
  5309     07D3                     u2950:
  5310     07D3                     l2495:
  5311     07D3  0874               	movf	eeprom_write@addr,w
  5312     07D4  00F2               	movwf	??_eeprom_write
  5313     07D5  01F3               	clrf	??_eeprom_write+1
  5314     07D6  0872               	movf	??_eeprom_write,w
  5315     07D7  0091               	movwf	17	;volatile
  5316     07D8  0873               	movf	??_eeprom_write+1,w
  5317     07D9  0092               	movwf	18	;volatile
  5318     07DA  0871               	movf	eeprom_write@value,w
  5319     07DB  0093               	movwf	19	;volatile
  5320     07DC                     l2497:
  5321     07DC  303F               	movlw	63
  5322     07DD  00F2               	movwf	??_eeprom_write
  5323     07DE  0872               	movf	??_eeprom_write,w
  5324     07DF  0595               	andwf	21,f	;volsfr
  5325     07E0                     l2499:
  5326     07E0  0020               	movlb	0	; select bank0
  5327     07E1  1003               	bcf	3,0	;volatile
  5328     07E2                     l2501:
  5329     07E2  1F8B               	btfss	11,7	;volatile
  5330     07E3  2FE5               	goto	u2961
  5331     07E4  2FE6               	goto	u2960
  5332     07E5                     u2961:
  5333     07E5  2FE7               	goto	l396
  5334     07E6                     u2960:
  5335     07E6                     l2503:
  5336     07E6  1403               	bsf	3,0	;volatile
  5337     07E7                     l396:
  5338     07E7  138B               	bcf	11,7	;volatile
  5339     07E8  0023               	movlb	3	; select bank3
  5340     07E9  1515               	bsf	21,2	;volsfr
  5341     07EA                     l2505:
  5342     07EA  3055               	movlw	85
  5343     07EB  0096               	movwf	22	;volsfr
  5344     07EC  30AA               	movlw	170
  5345     07ED  0096               	movwf	22	;volsfr
  5346     07EE                     l2507:
  5347     07EE  1495               	bsf	21,1	;volsfr
  5348     07EF                     l2509:
  5349     07EF  1115               	bcf	21,2	;volsfr
  5350     07F0                     l2511:
  5351     07F0  0020               	movlb	0	; select bank0
  5352     07F1  1C03               	btfss	3,0	;volatile
  5353     07F2  2FF4               	goto	u2971
  5354     07F3  2FF5               	goto	u2970
  5355     07F4                     u2971:
  5356     07F4  2FF6               	goto	l399
  5357     07F5                     u2970:
  5358     07F5                     l2513:
  5359     07F5  178B               	bsf	11,7	;volatile
  5360     07F6                     l399:
  5361     07F6  0008               	return
  5362     07F7                     __end_of_eeprom_write:
  5363                           
  5364                           	psect	text25
  5365     0EC4                     __ptext25:	
  5366 ;; *************** function _display_SET_command *****************
  5367 ;; Defined at:
  5368 ;;		line 249 in file "main.c"
  5369 ;; Parameters:    Size  Location     Type
  5370 ;;		None
  5371 ;; Auto vars:     Size  Location     Type
  5372 ;;		None
  5373 ;; Return value:  Size  Location     Type
  5374 ;;                  1    wreg      void 
  5375 ;; Registers used:
  5376 ;;		wreg, fsr0l, fsr0h, pclath
  5377 ;; Tracked objects:
  5378 ;;		On entry : 0/0
  5379 ;;		On exit  : 0/0
  5380 ;;		Unchanged: 0/0
  5381 ;; Data sizes:     COMMON   BANK0   BANK1   BANK2   BANK3   BANK4   BANK5
  5382 ;;      Params:         0       0       0       0       0       0       0
  5383 ;;      Locals:         0       0       0       0       0       0       0
  5384 ;;      Temps:          0       0       0       0       0       0       0
  5385 ;;      Totals:         0       0       0       0       0       0       0
  5386 ;;Total ram usage:        0 bytes
  5387 ;; Hardware stack levels used: 1
  5388 ;; Hardware stack levels required when called: 1
  5389 ;; This function calls:
  5390 ;;		Nothing
  5391 ;; This function is called by:
  5392 ;;		_check_and_set_max
  5393 ;; This function uses a non-reentrant model
  5394 ;;
  5395                           
  5396     0EC4                     _display_SET_command:	
  5397                           ;psect for function _display_SET_command
  5398                           
  5399     0EC4                     l2423:	
  5400                           ;incstack = 0
  5401                           ; Regs used in _display_SET_command: [wreg-fsr0h+pclath]
  5402                           
  5403                           
  5404                           ;main.c: 251:     digipos[0] = 0x78;
  5405     0EC4  3078               	movlw	120
  5406     0EC5  0020               	movlb	0	; select bank0
  5407     0EC6  00DA               	movwf	_digipos
  5408                           
  5409                           ;main.c: 252:     digipos[1] = 0x79;
  5410     0EC7  3079               	movlw	121
  5411     0EC8  00DB               	movwf	_digipos+1
  5412                           
  5413                           ;main.c: 253:     digipos[2] = 0x6D;
  5414     0EC9  306D               	movlw	109
  5415     0ECA  00DC               	movwf	_digipos+2
  5416     0ECB                     l2425:
  5417                           
  5418                           ;main.c: 254:     digipos[3] = DisplayNum[0];
  5419     0ECB  3000               	movlw	low (_DisplayNum| (0+32768))
  5420     0ECC  0084               	movwf	4
  5421     0ECD  3090               	movlw	high (_DisplayNum| (0+32768))
  5422     0ECE  0085               	movwf	5
  5423     0ECF  0800               	movf	0,w	;code access
  5424     0ED0  00DD               	movwf	_digipos+3
  5425     0ED1                     l127:
  5426     0ED1  0008               	return
  5427     0ED2                     __end_of_display_SET_command:
  5428                           
  5429                           	psect	intentry
  5430     0004                     __pintentry:	
  5431 ;; *************** function _isr *****************
  5432 ;; Defined at:
  5433 ;;		line 185 in file "main.c"
  5434 ;; Parameters:    Size  Location     Type
  5435 ;;		None
  5436 ;; Auto vars:     Size  Location     Type
  5437 ;;		None
  5438 ;; Return value:  Size  Location     Type
  5439 ;;                  1    wreg      void 
  5440 ;; Registers used:
  5441 ;;		wreg, fsr1l, fsr1h, status,2, status,0
  5442 ;; Tracked objects:
  5443 ;;		On entry : 0/0
  5444 ;;		On exit  : 0/0
  5445 ;;		Unchanged: 0/0
  5446 ;; Data sizes:     COMMON   BANK0   BANK1   BANK2   BANK3   BANK4   BANK5
  5447 ;;      Params:         0       0       0       0       0       0       0
  5448 ;;      Locals:         0       0       0       0       0       0       0
  5449 ;;      Temps:          1       0       0       0       0       0       0
  5450 ;;      Totals:         1       0       0       0       0       0       0
  5451 ;;Total ram usage:        1 bytes
  5452 ;; Hardware stack levels used: 1
  5453 ;; This function calls:
  5454 ;;		Nothing
  5455 ;; This function is called by:
  5456 ;;		Interrupt level 1
  5457 ;; This function uses a non-reentrant model
  5458 ;;
  5459                           
  5460     0004                     _isr:
  5461                           
  5462                           ;incstack = 0
  5463     0004  147E               	bsf	int$flags,0	;set compiler interrupt flag (level 1)
  5464                           
  5465                           ; Regs used in _isr: [wreg+fsr1l+fsr1h+status,2+status,0]
  5466     0005  3180               	pagesel	$
  5467     0006                     i1l2207:
  5468                           
  5469                           ;main.c: 189:     if (TMR0IF == 1 ){
  5470     0006  1D0B               	btfss	11,2	;volatile
  5471     0007  2809               	goto	u245_21
  5472     0008  280A               	goto	u245_20
  5473     0009                     u245_21:
  5474     0009  2861               	goto	i1l121
  5475     000A                     u245_20:
  5476     000A                     i1l2209:
  5477                           
  5478                           ;main.c: 192:         if ( pos == 0 )
  5479     000A  087C               	movf	_pos,w
  5480     000B  1D03               	btfss	3,2
  5481     000C  280E               	goto	u246_21
  5482     000D  280F               	goto	u246_20
  5483     000E                     u246_21:
  5484     000E  281C               	goto	i1l2221
  5485     000F                     u246_20:
  5486     000F                     i1l2211:
  5487                           
  5488                           ;main.c: 193:         {;main.c: 194:             LATC = digipos[pos];
  5489     000F  087C               	movf	_pos,w
  5490     0010  3E5A               	addlw	(low (_digipos| 0))& (0+255)
  5491     0011  0086               	movwf	6
  5492     0012  0187               	clrf	7
  5493     0013  0801               	movf	1,w
  5494     0014  0022               	movlb	2	; select bank2
  5495     0015  008E               	movwf	14	;volatile
  5496     0016                     i1l2213:
  5497                           
  5498                           ;main.c: 195:             PORTBbits.RB3 = 0;
  5499     0016  0020               	movlb	0	; select bank0
  5500     0017  118D               	bcf	13,3	;volatile
  5501     0018                     i1l2215:
  5502                           
  5503                           ;main.c: 196:             PORTBbits.RB2 = 1;
  5504     0018  150D               	bsf	13,2	;volatile
  5505     0019                     i1l2217:
  5506                           
  5507                           ;main.c: 197:             PORTBbits.RB1 = 1;
  5508     0019  148D               	bsf	13,1	;volatile
  5509     001A                     i1l2219:
  5510                           
  5511                           ;main.c: 198:             PORTBbits.RB0 = 1;
  5512     001A  140D               	bsf	13,0	;volatile
  5513                           
  5514                           ;main.c: 200:         }
  5515     001B  2854               	goto	i1l2257
  5516     001C                     i1l2221:
  5517     001C  037C               	decf	_pos,w
  5518     001D  1D03               	btfss	3,2
  5519     001E  2820               	goto	u247_21
  5520     001F  2821               	goto	u247_20
  5521     0020                     u247_21:
  5522     0020  282E               	goto	i1l2233
  5523     0021                     u247_20:
  5524     0021                     i1l2223:
  5525                           
  5526                           ;main.c: 202:         {;main.c: 204:                 LATC = digipos[pos];
  5527     0021  087C               	movf	_pos,w
  5528     0022  3E5A               	addlw	(low (_digipos| 0))& (0+255)
  5529     0023  0086               	movwf	6
  5530     0024  0187               	clrf	7
  5531     0025  0801               	movf	1,w
  5532     0026  0022               	movlb	2	; select bank2
  5533     0027  008E               	movwf	14	;volatile
  5534     0028                     i1l2225:
  5535                           
  5536                           ;main.c: 205:                 PORTBbits.RB2 = 0;
  5537     0028  0020               	movlb	0	; select bank0
  5538     0029  110D               	bcf	13,2	;volatile
  5539     002A                     i1l2227:
  5540                           
  5541                           ;main.c: 206:                 PORTBbits.RB3 = 1;
  5542     002A  158D               	bsf	13,3	;volatile
  5543     002B                     i1l2229:
  5544                           
  5545                           ;main.c: 207:                 PORTBbits.RB1 = 1;
  5546     002B  148D               	bsf	13,1	;volatile
  5547     002C                     i1l2231:
  5548                           
  5549                           ;main.c: 208:                 PORTBbits.RB0 = 1;
  5550     002C  140D               	bsf	13,0	;volatile
  5551                           
  5552                           ;main.c: 210:         }
  5553     002D  2854               	goto	i1l2257
  5554     002E                     i1l2233:
  5555     002E  3002               	movlw	2
  5556     002F  067C               	xorwf	_pos,w
  5557     0030  1D03               	btfss	3,2
  5558     0031  2833               	goto	u248_21
  5559     0032  2834               	goto	u248_20
  5560     0033                     u248_21:
  5561     0033  2841               	goto	i1l2245
  5562     0034                     u248_20:
  5563     0034                     i1l2235:
  5564                           
  5565                           ;main.c: 212:         {;main.c: 213:                 LATC = digipos[pos];
  5566     0034  087C               	movf	_pos,w
  5567     0035  3E5A               	addlw	(low (_digipos| 0))& (0+255)
  5568     0036  0086               	movwf	6
  5569     0037  0187               	clrf	7
  5570     0038  0801               	movf	1,w
  5571     0039  0022               	movlb	2	; select bank2
  5572     003A  008E               	movwf	14	;volatile
  5573     003B                     i1l2237:
  5574                           
  5575                           ;main.c: 214:                 PORTBbits.RB1 = 0;
  5576     003B  0020               	movlb	0	; select bank0
  5577     003C  108D               	bcf	13,1	;volatile
  5578     003D                     i1l2239:
  5579                           
  5580                           ;main.c: 215:                 PORTBbits.RB0 = 1;
  5581     003D  140D               	bsf	13,0	;volatile
  5582     003E                     i1l2241:
  5583                           
  5584                           ;main.c: 216:                 PORTBbits.RB3 = 1;
  5585     003E  158D               	bsf	13,3	;volatile
  5586     003F                     i1l2243:
  5587                           
  5588                           ;main.c: 217:                 PORTBbits.RB2 = 1;
  5589     003F  150D               	bsf	13,2	;volatile
  5590                           
  5591                           ;main.c: 219:         }
  5592     0040  2854               	goto	i1l2257
  5593     0041                     i1l2245:
  5594     0041  3003               	movlw	3
  5595     0042  067C               	xorwf	_pos,w
  5596     0043  1D03               	btfss	3,2
  5597     0044  2846               	goto	u249_21
  5598     0045  2847               	goto	u249_20
  5599     0046                     u249_21:
  5600     0046  2854               	goto	i1l115
  5601     0047                     u249_20:
  5602     0047                     i1l2247:
  5603                           
  5604                           ;main.c: 222:         {;main.c: 223:                 LATC = digipos[pos];
  5605     0047  087C               	movf	_pos,w
  5606     0048  3E5A               	addlw	(low (_digipos| 0))& (0+255)
  5607     0049  0086               	movwf	6
  5608     004A  0187               	clrf	7
  5609     004B  0801               	movf	1,w
  5610     004C  0022               	movlb	2	; select bank2
  5611     004D  008E               	movwf	14	;volatile
  5612     004E                     i1l2249:
  5613                           
  5614                           ;main.c: 224:                 PORTBbits.RB0 = 0;
  5615     004E  0020               	movlb	0	; select bank0
  5616     004F  100D               	bcf	13,0	;volatile
  5617     0050                     i1l2251:
  5618                           
  5619                           ;main.c: 225:                 PORTBbits.RB3 = 1;
  5620     0050  158D               	bsf	13,3	;volatile
  5621     0051                     i1l2253:
  5622                           
  5623                           ;main.c: 226:                 PORTBbits.RB2 = 1;
  5624     0051  150D               	bsf	13,2	;volatile
  5625     0052                     i1l2255:
  5626                           
  5627                           ;main.c: 227:                 PORTBbits.RB1 = 1;
  5628     0052  148D               	bsf	13,1	;volatile
  5629     0053  2854               	goto	i1l2257
  5630     0054                     i1l115:
  5631     0054                     i1l2257:
  5632                           
  5633                           ;main.c: 231:         if(pos >= 3 )
  5634     0054  3003               	movlw	3
  5635     0055  027C               	subwf	_pos,w
  5636     0056  1C03               	skipc
  5637     0057  2859               	goto	u250_21
  5638     0058  285A               	goto	u250_20
  5639     0059                     u250_21:
  5640     0059  285C               	goto	i1l2261
  5641     005A                     u250_20:
  5642     005A                     i1l2259:
  5643                           
  5644                           ;main.c: 232:         {;main.c: 233:             pos = 0;
  5645     005A  01FC               	clrf	_pos
  5646                           
  5647                           ;main.c: 234:         }
  5648     005B  2860               	goto	i1l2263
  5649     005C                     i1l2261:
  5650     005C  3001               	movlw	1
  5651     005D  00F0               	movwf	??_isr
  5652     005E  0870               	movf	??_isr,w
  5653     005F  07FC               	addwf	_pos,f
  5654     0060                     i1l2263:
  5655                           
  5656                           ;main.c: 237:          TMR0IF = 0;
  5657     0060  110B               	bcf	11,2	;volatile
  5658     0061                     i1l121:
  5659     0061  107E               	bcf	int$flags,0	;clear compiler interrupt flag (level 1)
  5660     0062  0009               	retfie
  5661     0063                     __end_of_isr:
  5662     007E                     btemp	set	126	;btemp
  5663     007E                     int$flags	set	126
  5664     007E                     wtemp0	set	126
  5665                           
  5666                           	psect	config
  5667                           
  5668                           ;Config register CONFIG1 @ 0x8007
  5669                           ;	Oscillator Selection
  5670                           ;	FOSC = 0x7, unprogrammed default
  5671                           ;	Watchdog Timer Enable
  5672                           ;	WDTE = OFF, WDT disabled
  5673                           ;	Power-up Timer Enable
  5674                           ;	PWRTE = 0x1, unprogrammed default
  5675                           ;	MCLR Pin Function Select
  5676                           ;	MCLRE = 0x1, unprogrammed default
  5677                           ;	Flash Program Memory Code Protection
  5678                           ;	CP = 0x1, unprogrammed default
  5679                           ;	Data Memory Code Protection
  5680                           ;	CPD = 0x1, unprogrammed default
  5681                           ;	Brown-out Reset Enable
  5682                           ;	BOREN = 0x3, unprogrammed default
  5683                           ;	Clock Out Enable
  5684                           ;	CLKOUTEN = 0x1, unprogrammed default
  5685                           ;	Internal/External Switchover
  5686                           ;	IESO = 0x1, unprogrammed default
  5687                           ;	Fail-Safe Clock Monitor Enable
  5688                           ;	FCMEN = 0x1, unprogrammed default
  5689     8007                     	org	32775
  5690     8007  3FE7               	dw	16359

Data Sizes:
    Strings     0
    Constant    10
    Data        0
    BSS         27
    Persistent  32
    Stack       0

Auto Spaces:
    Space          Size  Autos    Used
    COMMON           14     12      13
    BANK0            80     58      80
    BANK1            80      0       4
    BANK2            80      0       0
    BANK3            80      0       0
    BANK4            80      0       0
    BANK5            80      0       0

Pointer List with Targets:

    None.

Critical Paths under _main in COMMON

    _main->_init
    _map_value_to_pwm_resolution->___fltol
    ___xxtofl->___lwdiv
    ___flmul->__Umul8_16
    _set_factory_settings->_eeprom_write
    _init_EEPROM->_eeprom_read
    _initPwm->_load_pwm
    _display_digit->___lwmod
    ___lwmod->___lwdiv

Critical Paths under _isr in COMMON

    None.

Critical Paths under _main in BANK0

    _main->_map_value_to_pwm_resolution
    _map_value_to_pwm_resolution->___fltol
    ___fltol->___flmul
    ___flmul->___xxtofl
    _init->_check_and_set_max
    _check_and_set_max->_get_and_set_decrement
    _check_and_set_max->_get_and_set_increment
    _get_and_set_increment->_set_delay_and_display
    _get_and_set_decrement->_set_delay_and_display
    _set_delay_and_display->_display_digit
    _display_digit->___lwmod

Critical Paths under _isr in BANK0

    None.

Critical Paths under _main in BANK1

    None.

Critical Paths under _isr in BANK1

    None.

Critical Paths under _main in BANK2

    None.

Critical Paths under _isr in BANK2

    None.

Critical Paths under _main in BANK3

    None.

Critical Paths under _isr in BANK3

    None.

Critical Paths under _main in BANK4

    None.

Critical Paths under _isr in BANK4

    None.

Critical Paths under _main in BANK5

    None.

Critical Paths under _isr in BANK5

    None.

Call Graph Tables:

 ---------------------------------------------------------------------------------
 (Depth) Function   	        Calls       Base Space   Used Autos Params    Refs
 ---------------------------------------------------------------------------------
 (0) _main                                                 3     3      0   42282
                                             56 BANK0      2     2      0
                      _display_digit
                       _eeprom_write
              _get_and_set_decrement
              _get_and_set_increment
                               _init
              _is_dec_switch_pressed
              _is_inc_switch_pressed
                           _load_pwm
        _map_value_to_pwm_resolution
 ---------------------------------------------------------------------------------
 (1) _map_value_to_pwm_resolution                          8     4      4    4883
                                             48 BANK0      8     4      4
                            ___flmul
                            ___fltol
                            ___lwdiv
                           ___xxtofl
 ---------------------------------------------------------------------------------
 (2) ___xxtofl                                            14    10      4     656
                                              0 BANK0     14    10      4
                            ___lwdiv (ARG)
 ---------------------------------------------------------------------------------
 (2) ___fltol                                             10     6      4     427
                                             10 COMMON     2     2      0
                                             40 BANK0      8     4      4
                            ___flmul (ARG)
                            ___lwdiv (ARG)
                           ___xxtofl (ARG)
 ---------------------------------------------------------------------------------
 (2) ___flmul                                             26    18      8    2417
                                             14 BANK0     26    18      8
                          __Umul8_16
                            ___lwdiv (ARG)
                           ___xxtofl (ARG)
 ---------------------------------------------------------------------------------
 (3) __Umul8_16                                            9     7      2     799
                                              1 COMMON     9     7      2
 ---------------------------------------------------------------------------------
 (1) _init                                                 3     3      0   20846
                                             11 COMMON     1     1      0
                                             20 BANK0      2     2      0
                  _check_and_set_max
                      _display_digit
                            _initPwm
                        _init_EEPROM
                          _init_port
                         _init_timer
               _set_factory_settings
 ---------------------------------------------------------------------------------
 (2) _set_factory_settings                                 6     6      0     982
                                              5 COMMON     5     5      0
                 _display_FR_command
                       _eeprom_write
              _is_dec_switch_pressed
              _is_inc_switch_pressed
 ---------------------------------------------------------------------------------
 (3) _display_FR_command                                   0     0      0       0
 ---------------------------------------------------------------------------------
 (2) _init_timer                                           0     0      0       0
 ---------------------------------------------------------------------------------
 (2) _init_port                                            0     0      0       0
 ---------------------------------------------------------------------------------
 (2) _init_EEPROM                                         10    10      0     170
                                              5 COMMON     2     2      0
                                              0 BANK0      8     8      0
                        _eeprom_read
 ---------------------------------------------------------------------------------
 (3) _eeprom_read                                          4     4      0      31
                                              1 COMMON     4     4      0
 ---------------------------------------------------------------------------------
 (2) _initPwm                                              0     0      0     130
                           _load_pwm
 ---------------------------------------------------------------------------------
 (1) _load_pwm                                             5     5      0     130
                                              1 COMMON     5     5      0
 ---------------------------------------------------------------------------------
 (2) _check_and_set_max                                    8     8      0   16559
                                             12 BANK0      8     8      0
                _display_SET_command
                      _display_digit
                       _eeprom_write
              _get_and_set_decrement
              _get_and_set_increment
              _is_dec_switch_pressed
              _is_inc_switch_pressed
 ---------------------------------------------------------------------------------
 (3) _get_and_set_increment                                2     2      0    6317
                                             10 BANK0      2     2      0
                      _display_digit
              _is_inc_switch_pressed
              _set_delay_and_display
 ---------------------------------------------------------------------------------
 (1) _is_inc_switch_pressed                                2     2      0      40
                                              1 COMMON     2     2      0
 ---------------------------------------------------------------------------------
 (3) _get_and_set_decrement                                2     2      0    6317
                                             10 BANK0      2     2      0
                      _display_digit
              _is_dec_switch_pressed
              _set_delay_and_display
 ---------------------------------------------------------------------------------
 (4) _set_delay_and_display                                4     2      2    3210
                                              6 BANK0      4     2      2
                      _display_digit
 ---------------------------------------------------------------------------------
 (2) _display_digit                                        2     0      2    2937
                                              4 BANK0      2     0      2
                            ___lwdiv
                            ___lwmod
 ---------------------------------------------------------------------------------
 (3) ___lwmod                                              6     2      4     952
                                              9 COMMON     2     2      0
                                              0 BANK0      4     0      4
                            ___lwdiv (ARG)
 ---------------------------------------------------------------------------------
 (2) ___lwdiv                                              8     4      4     961
                                              1 COMMON     8     4      4
 ---------------------------------------------------------------------------------
 (1) _is_dec_switch_pressed                                2     2      0      40
                                              1 COMMON     2     2      0
 ---------------------------------------------------------------------------------
 (3) _eeprom_write                                         4     3      1     692
                                              1 COMMON     4     3      1
 ---------------------------------------------------------------------------------
 (3) _display_SET_command                                  0     0      0       0
 ---------------------------------------------------------------------------------
 Estimated maximum stack depth 4
 ---------------------------------------------------------------------------------
 (Depth) Function   	        Calls       Base Space   Used Autos Params    Refs
 ---------------------------------------------------------------------------------
 (7) _isr                                                  1     1      0       0
                                              0 COMMON     1     1      0
 ---------------------------------------------------------------------------------
 Estimated maximum stack depth 7
 ---------------------------------------------------------------------------------

 Call Graph Graphs:

 _main (ROOT)
   _display_digit
     ___lwdiv
     ___lwmod
       ___lwdiv (ARG)
   _eeprom_write
   _get_and_set_decrement
     _display_digit
     _is_dec_switch_pressed
     _set_delay_and_display
       _display_digit
   _get_and_set_increment
     _display_digit
     _is_inc_switch_pressed
     _set_delay_and_display
   _init
     _check_and_set_max
       _display_SET_command
       _display_digit
       _eeprom_write
       _get_and_set_decrement
       _get_and_set_increment
       _is_dec_switch_pressed
       _is_inc_switch_pressed
     _display_digit
     _initPwm
       _load_pwm
     _init_EEPROM
       _eeprom_read
     _init_port
     _init_timer
     _set_factory_settings
       _display_FR_command
       _eeprom_write
       _is_dec_switch_pressed
       _is_inc_switch_pressed
   _is_dec_switch_pressed
   _is_inc_switch_pressed
   _load_pwm
   _map_value_to_pwm_resolution
     ___flmul
       __Umul8_16
       ___lwdiv (ARG)
       ___xxtofl (ARG)
         ___lwdiv (ARG)
     ___fltol
       ___flmul (ARG)
       ___lwdiv (ARG)
       ___xxtofl (ARG)
     ___lwdiv
     ___xxtofl

 _isr (ROOT)

 Address spaces:
Name               Size   Autos  Total    Cost      Usage
BIGRAM             1E0      0       0       0        0.0%
EEDATA             100      0       0       0        0.0%
NULL                 0      0       0       0        0.0%
CODE                 0      0       0       0        0.0%
BITCOMMON            E      0       0       1        0.0%
BITSFR0              0      0       0       1        0.0%
SFR0                 0      0       0       1        0.0%
COMMON               E      C       D       2       92.9%
BITSFR1              0      0       0       2        0.0%
SFR1                 0      0       0       2        0.0%
BITSFR2              0      0       0       3        0.0%
SFR2                 0      0       0       3        0.0%
STACK                0      0       0       3        0.0%
BITBANK0            50      0       0       4        0.0%
BITSFR3              0      0       0       4        0.0%
SFR3                 0      0       0       4        0.0%
BANK0               50     3A      50       5      100.0%
BITSFR4              0      0       0       5        0.0%
SFR4                 0      0       0       5        0.0%
BITSFR5              0      0       0       6        0.0%
SFR5                 0      0       0       6        0.0%
ABS                  0      0      61       6        0.0%
BITBANK1            50      0       0       7        0.0%
BITSFR6              0      0       0       7        0.0%
SFR6                 0      0       0       7        0.0%
BANK1               50      0       4       8        5.0%
BITSFR7              0      0       0       8        0.0%
SFR7                 0      0       0       8        0.0%
BITBANK2            50      0       0       9        0.0%
BITSFR8              0      0       0       9        0.0%
SFR8                 0      0       0       9        0.0%
BANK2               50      0       0      10        0.0%
BITSFR9              0      0       0      10        0.0%
SFR9                 0      0       0      10        0.0%
BITBANK3            50      0       0      11        0.0%
BITSFR10             0      0       0      11        0.0%
SFR10                0      0       0      11        0.0%
BANK3               50      0       0      12        0.0%
BITSFR11             0      0       0      12        0.0%
SFR11                0      0       0      12        0.0%
BITBANK4            50      0       0      13        0.0%
BITSFR12             0      0       0      13        0.0%
SFR12                0      0       0      13        0.0%
BANK4               50      0       0      14        0.0%
BITSFR13             0      0       0      14        0.0%
SFR13                0      0       0      14        0.0%
BITBANK5            50      0       0      15        0.0%
BITSFR14             0      0       0      15        0.0%
SFR14                0      0       0      15        0.0%
BANK5               50      0       0      16        0.0%
BITSFR15             0      0       0      16        0.0%
SFR15                0      0       0      16        0.0%
BITSFR16             0      0       0      17        0.0%
SFR16                0      0       0      17        0.0%
DATA                 0      0      61      17        0.0%
BITSFR17             0      0       0      18        0.0%
SFR17                0      0       0      18        0.0%
BITSFR18             0      0       0      19        0.0%
SFR18                0      0       0      19        0.0%
BITSFR19             0      0       0      20        0.0%
SFR19                0      0       0      20        0.0%
BITSFR20             0      0       0      21        0.0%
SFR20                0      0       0      21        0.0%
BITSFR21             0      0       0      22        0.0%
SFR21                0      0       0      22        0.0%
BITSFR22             0      0       0      23        0.0%
SFR22                0      0       0      23        0.0%
BITSFR23             0      0       0      24        0.0%
SFR23                0      0       0      24        0.0%
BITSFR24             0      0       0      25        0.0%
SFR24                0      0       0      25        0.0%
BITSFR25             0      0       0      26        0.0%
SFR25                0      0       0      26        0.0%
BITSFR26             0      0       0      27        0.0%
SFR26                0      0       0      27        0.0%
BITSFR27             0      0       0      28        0.0%
SFR27                0      0       0      28        0.0%
BITSFR28             0      0       0      29        0.0%
SFR28                0      0       0      29        0.0%
BITSFR29             0      0       0      30        0.0%
SFR29                0      0       0      30        0.0%
BITSFR30             0      0       0      31        0.0%
SFR30                0      0       0      31        0.0%
BITSFR31             0      0       0      32        0.0%
SFR31                0      0       0      32        0.0%


Microchip Technology PIC Macro Assembler V2.46 build 20240104201356 
Symbol Table                                                                                   Fri Mar  1 22:03:21 2024

                             ?_display_FR_command 0070                                                l82 0F6E  
                                              l91 0EE0                                                l85 0F06  
                                              l88 074E                                                l97 0F4D  
                           set_factory_settings@i 0077                             set_factory_settings@j 0079  
                             __Umul8_16@word_mpld 0077                                               l103 0F34  
                                             l106 07FE                                               l130 0EF2  
                                             l210 0419                                               l203 0FFF  
                                             l124 04FB                                               l141 05FD  
                                             l127 0ED1                                               l136 0790  
                                             l147 064D                                               l163 06FE  
                                             l173 054C                                               l158 06AB  
                                             l182 0373                                               l191 03B8  
                                             l177 0570                                               l604 05CC  
                                             l373 0F08                                               l198 03F1  
                                             l375 0F1B                                               l607 05E1  
                                             l392 07CE                                               l800 02B1  
                                             l393 07CE                                               l396 07E7  
                                             l812 02A5                                               l821 0F91  
                                             l806 0231                                               l399 07F6  
                                             l850 030E                                               l683 07CC  
                                             l819 0F81                                               l844 02D5  
                                             l693 0FC6                                               l597 05E1  
                                             l846 035C                                               l857 0328  
                                             l858 0334                                               _GIE 005F  
                                             _PR2 001B                                               _isr 0004  
                             _display_SET_command 0EC4                                               _pos 007C  
                                             wreg 0009                                      ___flmul@aexp 0040  
                                    ___flmul@bexp 0041                                      ___flmul@sign 003B  
                                    ___flmul@temp 0046                                      ___flmul@prod 0042  
                            ??_display_FR_command 0071                                      ___fltol@exp1 007B  
                                            l2001 0082                                              l2011 009E  
                                            l2003 0087                                              l2101 0236  
                                            l2021 00AF                                              l2013 00A3  
                                            l2005 008C                                              l2103 023B  
                                            l2111 0263                                              l2031 00CB  
                                            l2023 00B4                                              l2015 00A5  
                                            l2007 0094                                              l2121 0293  
                                            l2113 0270                                              l2105 0243  
                                            l2041 00F1                                              l2033 00D0  
                                            l2025 00BC                                              l2017 00A9  
                                            l2009 0096                                              l2123 029E  
                                            l2115 027A                                              l2107 0247  
                                            l2051 0148                                              l2043 0109  
                                            l2027 00BE                                              l2019 00AA  
                                            l2125 02A2                                              l2117 0288  
                                            l2109 025F                                              l2061 0173  
                                            l2053 014F                                              l2045 0116  
                                            l2037 00D9                                              l2029 00C6  
                                            l2127 02A3                                              l2119 0291  
                                            l2071 01BB                                              l2063 0185  
                                            l2055 015A                                              l2047 012E  
                                            l2039 00E4                                              l2321 07A1  
                                            l2313 0791                                              l2401 076E  
                                            l2129 02A9                                              l2081 0201  
                                            l2073 01D0                                              l2065 018C  
                                            l2057 0161                                              l2049 013B  
                                            l2331 07BD                                              l2323 07A5  
                                            l2315 0793                                              l2403 0777  
                                            l2411 0F52                                              l2091 0215  
                                            l2083 0205                                              l2075 01E7  
                                            l2067 019E                                              l2059 016C  
                                            l2501 07E2                                              l2333 07C2  
                                            l2325 07A9                                              l2317 0799  
                                            l2341 0F99                                              l2405 0780  
                                            l2413 0F5E                                              l2093 0216  
                                            l2085 0206                                              l2077 01EE  
                                            l2069 01A9                                              l2423 0EC4  
                                            l2511 07F0                                              l2503 07E6  
                                            l2327 07B8                                              l2319 079C  
                                            l2335 07C8                                              l2351 0FB3  
                                            l2343 0F9C                                              l2407 0787  
                                            l2415 0F66                                              l2431 0EEC  
                                            l2095 021A                                              l2087 020D  
                                            l2079 01FA                                              l2425 0ECB  
                                            l2513 07F5                                              l2505 07EA  
                                            l2329 07BC                                              l2353 0FB7  
                                            l2345 0FA1                                              l2361 0482  
                                            l2441 0606                                              l2433 05E2  
                                            l2601 055E                                              l2417 0F68  
                                            l2409 0F4F                                              l2521 0EFC  
                                            l2097 022E                                              l2089 0211  
                                            l2507 07EE                                              l2355 0FBC  
                                            l2347 0FA5                                              l2339 0F92  
                                            l2371 0F48                                              l2363 0F35  
                                            l2451 062D                                              l2443 060D  
                                            l2435 05E5                                              l2611 056F  
                                            l2603 055E                                              l2419 0F6A  
                                            l2523 0EFE                                              l2515 0EF3  
                                            l2531 0ED5                                              l2427 0EE1  
                                            l2509 07EF                                              l2381 0F1D  
                                            l2349 0FA9                                              l2357 0FC2  
                                            l2461 064E                                              l2373 0F4B  
                                            l2365 0F36                                              l2453 0636  
                                            l2445 0617                                              l2437 05F0  
                                            l2605 0560                                              l2525 0F00  
                                            l2517 0EF7                                              l2533 0ED6  
                                            l2541 07F7                                              l2429 0EE6  
                                            l2621 0378                                              l2613 035D  
                                            l2701 05D1                                              l2383 0F22  
                                            l2391 0F33                                              l2471 066C  
                                            l2463 0651                                              l2367 0F3B  
                                            l2375 0F4C                                              l2455 0640  
                                            l2447 0621                                              l2439 05F9  
                                            l2607 0562                                              l2527 0F04  
                                            l2519 0EF9                                              l2551 06C2  
                                            l2535 0ED7                                              l2543 07FC  
                                            l2631 038A                                              l2623 0380  
                                            l2615 035E                                              l2703 05D6  
                                            l2711 02CD                                              l2385 0F2A  
                                            l2481 068F                                              l2473 0673  
                                            l2465 0658                                              l2369 0F43  
                                            l2449 0625                                              l2609 0568  
                                            l2561 06F6                                              l2553 06CB  
                                            l2545 06AC                                              l2537 0EDC  
                                            l2529 0ED2                                              l2641 03A6  
                                            l2633 038B                                              l2625 0385  
                                            l2617 0366                                              l2721 02F4  
                                            l2713 02DD                                              l2705 02B4  
                                            l2801 0432                                              l2387 0F2F  
                                            l2379 0F1C                                              l2395 074F  
                                            l2483 0698                                              l2475 067D  
                                            l2467 0661                                              l2459 0645  
                                            l2571 0514                                              l2491 0F0E  
                                            l2563 06FC                                              l2555 06D1  
                                            l2547 06AC                                              l2539 0EDE  
                                            l2651 03BC                                              l2643 03AC  
                                            l2635 038F                                              l2627 0386  
                                            l2619 0375                                              l2731 031E  
                                            l2723 02FB                                              l2707 02B9  
                                            l2811 044B                                              l2803 0436  
                                            l2389 0F32                                              l2397 0759  
                                            l2485 069E                                              l2477 0683  
                                            l2469 0663                                              l2581 052A  
                                            l2573 0517                                              l2565 04FC  
                                            l2557 06D7                                              l2549 06B7  
                                            l2661 03DE                                              l2653 03C1  
                                            l2645 03B0                                              l2637 03A1  
                                            l2629 0387                                              l2741 034F  
                                            l2733 0322                                              l2725 02FF  
                                            l2717 02E6                                              l2709 02BD  
                                            l2821 0468                                              l2813 0451  
                                            l2805 043D                                              l2495 07D3  
                                            l2399 0760                                              l2479 0687  
                                            l2591 053E                                              l2583 052E  
                                            l2575 051A                                              l2567 04FE  
                                            l2559 06ED                                              l2663 03E4  
                                            l2655 03D3                                              l2639 03A6  
                                            l1791 0F72                                              l2671 057B  
                                            l2743 0353                                              l2735 032C  
                                            l2727 0307                                              l2719 02E9  
                                            l2823 047C                                              l2807 0447  
                                            l2815 0458                                              l2497 07DC  
                                            l2489 06A3                                              l2593 0546  
                                            l2585 0530                                              l2569 0506  
                                            l2577 0522                                              l2665 03E8  
                                            l2657 03D9                                              l2649 03B9  
                                            l2761 0FD6                                              l2753 0FC7  
                                            l1793 0F79                                              l2681 059E  
                                            l2745 0354                                              l2737 0336  
                                            l2729 0315                                              l2825 047F  
                                            l2817 045D                                              l2809 0449  
                                            l2499 07E0                                              l2595 0549  
                                            l2587 0538                                              l2579 0528  
                                            l2659 03DE                                              l2771 0FE0  
                                            l2763 0FD9                                              l2755 0FCD  
                                            l1795 0F7D                                              l2691 05AC  
                                            l2683 05A0                                              l2675 0584  
                                            l2739 034A                                              l2819 0462  
                                            l2597 0554                                              l2589 053B  
                                            l2773 0FE8                                              l2765 0FDC  
                                            l2757 0FD0                                              l1797 0F88  
                                            l1789 0F70                                              l2685 05A4  
                                            l2693 05BC                                              l2677 0595  
                                            l2669 0571                                              l2749 06FF  
                                            l2781 03F2                                    ?_display_digit 0024  
                                            l2599 055A                                              l2775 0FF4  
                                            l2759 0FD3                                              l1799 0F8D  
                                            l2679 0596                                              l2791 040C  
                                            l2783 03F9                                              l2777 0FF9  
                                            l1993 0077                                              l2793 040D  
                                            l2785 03FC                                              l1995 007B  
                                            l2699 05C3                                              l2795 0415  
                                            l2787 0401                                              l2779 03F2  
                                            l1997 007D                                              l2789 0409  
                                            l1999 0081                                              l2799 0421  
                                            ?_isr 0070                                              _T0CS 04AD  
                                            u2100 00CB                                              u2101 00CA  
                                            u2110 00D0                                              u2111 00CF  
                                            u3000 0506                                              u2200 0215  
                                            u2040 0081                                              u3001 0505  
                                            u2201 0214                                              u2041 0080  
                                            u3010 0522                                              u2210 021A  
                                            u2050 0087                                              u3011 0521  
                                            u2211 0219                                              u2051 0086  
                                            u3020 0528                                              u3100 039F  
                                            u2220 022E                                              u2140 01C6  
                                            u2060 008C                                              u3021 0527  
                                            u3101 039C                                              u2221 022D  
                                            u2125 0149                                              u2061 008B  
                                            u3030 0538                                              u2230 0235  
                                            u2150 01DD                                              u2070 00A9  
                                            u3031 0537                                              u2231 0234  
                                            u2135 0174                                              u2071 00A8  
                                            _LATC 010E                                              u3040 0546  
                                            u3120 03A6                                              u3104 0399  
                                            u2240 023B                                              u2080 00AF  
                                            u3200 0591                                              u3041 0545  
                                            u3121 03A5                                              u2241 023A  
                                            u2145 01C2                                              u2081 00AE  
                                            u3050 055A                                              u3130 03B8  
                                            u3114 03A1                                              u2250 0247  
                                            u2090 00B4                                              u3210 05A4  
                                            u3051 0559                                              u3131 03B7  
                                            u2251 0246                                              u2155 01D9  
                                            u2091 00B3                                              u3211 05A3  
                                            u3140 03C9                                              u3060 0366  
                                            u1700 0F7D                                              u2260 0255  
                                            u2180 0205                                              u3220 05AB  
                                            u3300 02BD                                              u3141 03C6  
                                            u3061 0365                                              u1701 0F7C  
                                            u2181 0204                                              u2165 01E8  
                                            u3221 05AA                                              u3205 058D  
                                            u3301 02BC                                              u3150 03D1  
                                            u3070 0380                                              u2270 0270  
                                            u3310 02DD                                              u3151 03CE  
                                            u3071 037F                                              u2271 026F  
                                            u2175 01FB                                              u3311 02DC  
                                            u3080 0385                                              u1720 0F8D  
                                            u2280 0288                                              u3240 05BB  
                                            u3400 0340                                              u3081 0384  
                                            u1721 0F8C                                              u2281 0287  
                                            u2265 0251                                              u3241 05BA  
                                            u2610 07B8                                              u3170 03DE  
                                            u3154 03CB                                              u3090 0397  
                                            u2290 02A2                                              u3250 05C2  
                                            u3410 034F                                              u3330 02FA  
                                            u2611 07B7                                              u3171 03DD  
                                            u3091 0394                                              u1715 0F82  
                                            u2291 02A1                                              u2275 026C  
                                            u2195 0207                                              u3251 05C1  
                                            u3235 05AD                                              u3411 034E  
                                            u3331 02F9                                              u2700 0F3B  
                                            u3180 03F0                                              u3164 03D3  
                                            u3420 0353                                              u2605 07AA  
                                            u2701 0F3A                                              u3181 03EF  
                                            u2285 0284                                              u3421 0352  
                                            u3405 033C                                              u3325 02EE  
                                            u2630 07C8                                              u2710 0F48  
                                            u3430 0FFF                                              u3270 05D1  
                                            u3190 057B                                              u3350 0314  
                                            u2631 07C7                                              u2615 07B4  
                                            u2711 0F47                                              u3431 0FFE  
                                            u3271 05D0                                              u3191 057A  
                                            u3351 0313                                              u2720 0F22  
                                            u2640 0F99                                              u2800 05F0  
                                            u3280 05D6                                              u3440 0409  
                                            u2721 0F21                                              u2625 07BE  
                                            u2641 0F98                                              u2801 05EF  
                                            u3281 05D5                                              u3265 05C4  
                                            u3345 0308                                              u3441 0408  
                                            u2730 0F2F                                              u2570 0799  
                                            u2810 0606                                              u3370 0322  
                                            u3290 02B9                                              u3450 0415  
                                            u2731 0F2E                                              u2571 0798  
                                            u2811 0605                                              u3507 0FEE  
                                            u3371 0321                                              u3291 02B8  
                                            u3451 0414                                              u2660 0FA9  
                                            u2740 0759                                              u2900 0683  
                                            u2820 0617                                              u3380 0328  
                                            u3460 043D                                              u2661 0FA8  
                                            u2741 0758                                              u2901 0682  
                                            u2821 0616                                              u2805 05EC  
                                            u3517 036B                                              u3381 0327  
                                            u3365 0318                                              u3461 043C  
                                            u2590 07A9                                              u2670 0FB3  
                                            u2750 0777                                              u2910 0698  
                                            u2830 0621                                              u3390 032C  
                                            u3470 0447                                              u2591 07A8  
                                            u2671 0FB2                                              u2655 0F9D  
                                            u2751 0776                                              u2911 0697  
                                            u2831 0620                                              u3527 038C  
                                            u3391 032B                                              u3471 0446  
                                            u2760 0780                                              u2920 069E  
                                            u2840 0636                                              u3480 0462  
                                            u2585 079D                                              u2761 077F  
                                            u2921 069D                                              u2841 0635  
                                            u3537 03BE                                              u3481 0461  
                                            u2690 0FC2                                              u2930 06AB  
                                            u2850 0640                                              u3490 0468  
                                            u2691 0FC1                                              u2675 0FAF  
                                            u2931 06AA                                              u2851 063F  
                                            u2835 061D                                              u3547 050C  
                                            u3491 0467                                              u3475 0443  
                                            u2860 064D                                              u2940 0F0E  
                                            u2685 0FB8                                              u3557 0F3E  
                                            u2861 064C                                              u2941 0F0D  
                                            u2950 07D3                                              u2870 0658  
                                            u2790 0F6E                                              u2951 07D2  
                                            u3567 0766                                              u2871 0657  
                                            u2855 063C                                              u2791 0F6D  
                                            u2775 0F55                                              u2960 07E6  
                                            u2880 066C                                              u2961 07E5  
                                            u3577 078B                                              u2881 066B  
                                            u2785 0F61                                              u2970 07F5  
                                            u2890 067D                                              u2971 07F4  
                                            u3587 0F25                                              u2891 067C  
                                            u2980 06D7                                              u2981 06D6  
                                            u2990 06FC                                              u2991 06FB  
                                            _TMR2 001A                                    ??_eeprom_write 0072  
                                            _main 03F2                                              _init 0FC7  
                                            fsr0h 0005                                              fsr1h 0007  
                                            indf0 0000                                              fsr0l 0004  
                                            indf1 0001                                              fsr1l 0006  
                                            btemp 007E                                      ?_init_EEPROM 0070  
                            ?_display_SET_command 0070                                              start 0063  
                                           ??_isr 0070                                 _check_and_set_max 04FC  
                                   ___fltol@sign1 007A                                             ?_main 0070  
                                           ?_init 0070                                             _EEADR 0191  
                                 __end_of___flmul 02B2                                ?_check_and_set_max 0070  
                                 __end_of___fltol 05E2                            ?_set_delay_and_display 0026  
                                 __end_of___lwdiv 07CD                                             i1l121 0061  
                                           i1l115 0054                                   __end_of___lwmod 0FC7  
                                           _PORTB 000D                                             _PORTC 000E  
                                           _TRISB 008D                                             _TRISC 008E  
                                      _DisplayNum 1000                               ??_check_and_set_max 002C  
                                 __end_of_initPwm 0F07                            main@last_upper_byte_wr 0059  
                                           status 0003                                             wtemp0 007E  
                           ??_display_SET_command 0071                                   __initialization 0065  
                         ??_is_inc_switch_pressed 0071                                      __end_of_main 0482  
                                    __end_of_init 1000                         __end_of_check_and_set_max 0571  
                           _get_and_set_decrement 064E                                            ??_main 007C  
                                          ??_init 0034                                 _last_value_status 006E  
                                     init@counter 007B                                   ??_display_digit 007B  
                           _is_dec_switch_pressed 0F1C                                            _EEDATA 0193  
                                          _CCPR5L 031C                                            _EECON1 0195  
                                          _EECON2 0196                                            _ANSELB 018D  
                                          i1l2211 000F                                            i1l2213 0016  
                                          i1l2221 001C                                            i1l2231 002C  
                                          i1l2223 0021                                            i1l2215 0018  
                                          i1l2207 0006                                            i1l2241 003E  
                                          i1l2225 0028                                            i1l2233 002E  
                                          i1l2217 0019                                            i1l2209 000A  
                                          i1l2251 0050                                            i1l2243 003F  
                                          i1l2235 0034                                            i1l2227 002A  
                                          i1l2219 001A                                            i1l2261 005C  
                                          i1l2253 0051                                            i1l2237 003B  
                                          i1l2245 0041                                            i1l2229 002B  
                                          i1l2263 0060                                            i1l2255 0052  
                                          i1l2247 0047                                            i1l2239 003D  
                                          i1l2249 004E                                            i1l2257 0054  
                                          i1l2259 005A                                            u250_20 005A  
                                          u250_21 0059                                            u245_20 000A  
                                          u245_21 0009                                            u246_20 000F  
                                          u246_21 000E                                            u247_20 0021  
                                          u247_21 0020                                            u248_20 0034  
                                          u248_21 0033                                            u249_20 0047  
                                          u249_21 0046                                            _OSCCON 0099  
                                          _TMR0IE 005D                                            _TMR0IF 005A  
                                          _TMR2IE 0489                                            _TMR2IF 0089  
                                          _TMR2ON 00E2                             _get_and_set_increment 05E2  
                                          _TRISA4 0464                     init_EEPROM@last_upper_byte_rd 0022  
                                __end_of___xxtofl 035D                                         ??___flmul 0036  
                                       ??___fltol 004C                                         ??___lwdiv 0075  
                                       ??___lwmod 0079                                  __end_of_load_pwm 0F6F  
                                     load_pwm@lsb 0073                                       load_pwm@msb 0074  
     check_and_set_max@max_value_setting_selected 002F                              __end_of_eeprom_write 07F7  
                                       ??_initPwm 0076                                      ___xxtofl@arg 002A  
                                    ___xxtofl@exp 0029                                      ___xxtofl@val 0020  
                         __end_of__initialization 0073                                   eeprom_read@addr 0074  
                                      ___fltol@f1 0048                                    __pcstackCOMMON 0070  
                          ?_get_and_set_decrement 0070                            ?_is_dec_switch_pressed 0070  
                               eeprom_write@value 0071                                        __pbssBANK0 005A  
                                      __pbssBANK1 00A0                            ?_get_and_set_increment 0070  
              check_and_set_max@max_upper_byte_wr 0030                                 __end_of__Umul8_16 0F92  
                                      __pmaintext 03F2                                        __pintentry 0004  
                         ??_set_delay_and_display 0028                                           _CCP5CON 031E  
                              display_digit@value 0024                                         ?___xxtofl 0020  
                                   _is_pwm_loaded 006C                                         ?_load_pwm 0070  
                    map_value_to_pwm_resolution@x 0050                                        _last_value 0062  
                                         ___flmul 0077                                           ___fltol 0571  
                                         ___lwdiv 0791                                           ___lwmod 0F92  
                                      _curr_value 0064                     __end_of_is_inc_switch_pressed 0F4E  
                                      _init_timer 07F7                                           _digipos 005A  
                                         __ptext1 06FF                                           __ptext2 02B2  
                                         __ptext3 0571                                           __ptext4 0077  
                                         __ptext5 0F6F                                           __ptext6 0FC7  
                                         __ptext7 035D                                           __ptext8 0EE1  
                                         __ptext9 07F7                                           _initPwm 0EF3  
                                      ??___xxtofl 0024                      get_and_set_decrement@counter 002A  
                               __end_of_init_port 0EE1                                        _duty_cycle 006A  
                                         _on_time 00A0                                           clrloop0 0EBF  
                     __end_of_display_SET_command 0ED2                      init_EEPROM@max_upper_byte_rd 0026  
                            end_of_initialization 0073                                        ??_load_pwm 0071  
                                    _eeprom_write 07CD                                         _PORTBbits 000D  
                                   ___xxtofl@sign 0028                                        _pwm_period 005E  
                    ?_map_value_to_pwm_resolution 0050                             __end_of_display_digit 04FC  
                                     ___flmul@grs 003C                                     ??_eeprom_read 0071  
                         ??_get_and_set_decrement 007B                                __end_of_DisplayNum 100A  
                    __end_of_set_factory_settings 03F2                                       ?_init_timer 0070  
                         ??_is_dec_switch_pressed 0071                               start_initialization 0065  
                                     __end_of_isr 0063                           ??_get_and_set_increment 007B  
                   ??_map_value_to_pwm_resolution 0054                                     ??_init_EEPROM 0075  
                          main@last_lower_byte_wr 0058                               __end_of_eeprom_read 0F1C  
                                       __Umul8_16 0F6F                     __end_of_set_delay_and_display 0791  
                                       ___flmul@a 0032                                         ___flmul@b 002E  
                                     __pbssCOMMON 007C                      set_delay_and_display@counter 0026  
                                       ___latbits 0002                                     __pcstackBANK0 0020  
                                eeprom_write@addr 0074                     init_EEPROM@last_lower_byte_rd 0020  
set_factory_settings@factory_setting_mode_enabled 0078                                  ___lwdiv@dividend 0073  
                             __end_of_init_EEPROM 06FF                                          ?___flmul 002E  
                                        ?___fltol 0048                                        ?__Umul8_16 0071  
                                        ?___lwdiv 0071                                          ?___lwmod 0020  
            map_value_to_pwm_resolution@max_value 0052                                          ?_initPwm 0070  
                     check_and_set_max@max_eeprom 0031                        __end_of_display_FR_command 0EF3  
                               load_pwm@pwm_value 0075                                  ___lwdiv@quotient 0077  
                                       _max_value 0066                                         _init_port 0ED2  
                            _set_factory_settings 035D                      get_and_set_increment@counter 002A  
                                       clear_ram0 0EBE                                       _eeprom_read 0F07  
              is_dec_switch_pressed@switch_status 0072                                         _pwm_value 0068  
                           _is_inc_switch_pressed 0F35                                        ?_init_port 0070  
                           ?_set_factory_settings 0070                                        _EECON1bits 0195  
                                     _init_EEPROM 06AC                     __end_of_get_and_set_decrement 06AC  
              check_and_set_max@max_lower_byte_wr 002E                                       ??__Umul8_16 0073  
                                    ??_init_timer 0071                     __end_of_is_dec_switch_pressed 0F35  
                                        ___xxtofl 02B2                                   ___lwdiv@divisor 0071  
                                 ___lwdiv@counter 0076                                          __ptext10 0ED2  
                                        __ptext11 06AC                                          __ptext20 0482  
                                        __ptext12 0F07                                          __ptext21 0F92  
                                        __ptext13 0EF3                                          __ptext22 0791  
                                        __ptext14 0F4E                                          __ptext23 0F1C  
                                        __ptext15 04FC                                          __ptext24 07CD  
                                        __ptext16 05E2                                          __ptext25 0EC4  
                                        __ptext17 0F35                                          __ptext18 064E  
                                        __ptext19 074F                     __end_of_get_and_set_increment 064E  
                                        _load_pwm 0F4E                                __end_of_init_timer 07FF  
                                        int$flags 007E                is_inc_switch_pressed@switch_status 0072  
                          ?_is_inc_switch_pressed 0070                                        _INTCONbits 000B  
                                     _on_time_int 006F                                 _is_pwm_configured 006D  
                                     ??_init_port 0071                            ??_set_factory_settings 0075  
                                        intlevel1 0000                      init_EEPROM@max_lower_byte_rd 0024  
                                ___lwmod@dividend 0022                                     __pstringtext1 1000  
                          __Umul8_16@multiplicand 0071                                        _OPTION_REG 0095  
                                 ___lwmod@divisor 0020                             _set_delay_and_display 074F  
                                 ___lwmod@counter 007A               __end_of_map_value_to_pwm_resolution 074F  
                     _map_value_to_pwm_resolution 06FF                   check_and_set_max@some_value_set 0033  
                                   _display_digit 0482                                     ?_eeprom_write 0071  
                                      _STATUSbits 0003                              __Umul8_16@multiplier 0079  
                                    ?_eeprom_read 0070                                _display_FR_command 0EE1  
                               __Umul8_16@product 0075  
