

Microchip MPLAB XC8 Assembler V2.46 build 20240104201356 
                                                                                               Wed Feb 28 20:36:05 2024

Microchip MPLAB XC8 C Compiler v2.46 (Free license) build 20240104201356 Og1 
     1                           	processor	16F1936
     2                           	pagewidth 120
     3                           	opt	flic
     4                           	psect	stringtext1,global,class=STRCODE,delta=2,noexec
     5                           	psect	cinit,global,class=CODE,merge=1,delta=2
     6                           	psect	bssCOMMON,global,class=COMMON,space=1,delta=1,noexec
     7                           	psect	bssBANK0,global,class=BANK0,space=1,delta=1,noexec
     8                           	psect	bssBANK1,global,class=BANK1,space=1,delta=1,noexec
     9                           	psect	clrtext,global,class=CODE,delta=2
    10                           	psect	cstackCOMMON,global,class=COMMON,space=1,delta=1,noexec
    11                           	psect	cstackBANK0,global,class=BANK0,space=1,delta=1,noexec
    12                           	psect	maintext,global,class=CODE,merge=1,split=1,delta=2
    13                           	psect	text1,local,class=CODE,merge=1,delta=2
    14                           	psect	text2,local,class=CODE,merge=1,delta=2,group=1
    15                           	psect	text3,local,class=CODE,merge=1,delta=2,group=1
    16                           	psect	text4,local,class=CODE,merge=1,delta=2,group=1
    17                           	psect	text5,local,class=CODE,merge=1,delta=2,group=1
    18                           	psect	text6,local,class=CODE,merge=1,delta=2
    19                           	psect	text7,local,class=CODE,merge=1,delta=2
    20                           	psect	text8,local,class=CODE,merge=1,delta=2
    21                           	psect	text9,local,class=CODE,merge=1,delta=2
    22                           	psect	text10,local,class=CODE,merge=1,delta=2
    23                           	psect	text11,local,class=CODE,merge=1,delta=2
    24                           	psect	text12,local,class=CODE,merge=1,delta=2
    25                           	psect	text13,local,class=CODE,merge=1,delta=2
    26                           	psect	text14,local,class=CODE,merge=1,delta=2
    27                           	psect	text15,local,class=CODE,merge=1,delta=2
    28                           	psect	text16,local,class=CODE,merge=1,delta=2
    29                           	psect	text17,local,class=CODE,merge=1,delta=2
    30                           	psect	text18,local,class=CODE,merge=1,delta=2
    31                           	psect	text19,local,class=CODE,merge=1,delta=2
    32                           	psect	text20,local,class=CODE,merge=1,delta=2
    33                           	psect	text21,local,class=CODE,merge=1,delta=2,group=1
    34                           	psect	text22,local,class=CODE,merge=1,delta=2,group=1
    35                           	psect	text23,local,class=CODE,merge=1,delta=2
    36                           	psect	text24,local,class=CODE,merge=1,delta=2
    37                           	psect	text25,local,class=CODE,merge=1,delta=2
    38                           	psect	intentry,global,class=CODE,delta=2
    39                           	psect	config,global,abs,ovrld,class=CONFIG,space=4,delta=2,noexec
    40                           	dabs	1,0x7E,2
    41     0000                     
    42                           ; Generated 07/09/2023 GMT
    43                           ; 
    44                           ; Copyright © 2023, Microchip Technology Inc. and its subsidiaries ("Microchip")
    45                           ; All rights reserved.
    46                           ; 
    47                           ; This software is developed by Microchip Technology Inc. and its subsidiaries ("Microch
      +                          ip").
    48                           ; 
    49                           ; Redistribution and use in source and binary forms, with or without modification, are
    50                           ; permitted provided that the following conditions are met:
    51                           ; 
    52                           ;     1. Redistributions of source code must retain the above copyright notice, this lis
      +                          t of
    53                           ;        conditions and the following disclaimer.
    54                           ; 
    55                           ;     2. Redistributions in binary form must reproduce the above copyright notice, this 
      +                          list
    56                           ;        of conditions and the following disclaimer in the documentation and/or other
    57                           ;        materials provided with the distribution. Publication is not required when
    58                           ;        this file is used in an embedded application.
    59                           ; 
    60                           ;     3. Microchip's name may not be used to endorse or promote products derived from th
      +                          is
    61                           ;        software without specific prior written permission.
    62                           ; 
    63                           ; THIS SOFTWARE IS PROVIDED BY MICROCHIP "AS IS" AND ANY EXPRESS OR IMPLIED WARRANTIES,
    64                           ; INCLUDING, BUT NOT LIMITED TO, THE IMPLIED WARRANTIES OF MERCHANTABILITY AND FITNESS F
      +                          OR
    65                           ; PURPOSE ARE DISCLAIMED.  IN NO EVENT SHALL MICROCHIP BE LIABLE FOR ANY DIRECT, INDIREC
      +                          T,
    66                           ; INCIDENTAL, SPECIAL, EXEMPLARY, OR CONSEQUENTIAL DAMAGES (INCLUDING BUT NOT LIMITED TO
    67                           ; PROCUREMENT OF SUBSTITUTE GOODS OR SERVICES; LOSS OF USE, DATA OR PROFITS; OR BUSINESS
    68                           ; INTERRUPTION) HOWSOEVER CAUSED AND ON ANY THEORY OF LIABILITY, WHETHER IN CONTRACT, ST
      +                          RICT
    69                           ; LIABILITY, OR TORT (INCLUDING NEGLIGENCE OR OTHERWISE) ARISING IN ANY WAY OUT OF THE U
      +                          SE OF
    70                           ; THIS SOFTWARE, EVEN IF ADVISED OF THE POSSIBILITY OF SUCH DAMAGE.
    71                           ; 
    72                           ; 
    73                           ; Code-generator required, PIC16F1936 Definitions
    74                           ; 
    75                           ; SFR Addresses
    76     0000                     	;# 
    77     0001                     	;# 
    78     0002                     	;# 
    79     0003                     	;# 
    80     0004                     	;# 
    81     0005                     	;# 
    82     0006                     	;# 
    83     0007                     	;# 
    84     0008                     	;# 
    85     0009                     	;# 
    86     000A                     	;# 
    87     000B                     	;# 
    88     000C                     	;# 
    89     000D                     	;# 
    90     000E                     	;# 
    91     0010                     	;# 
    92     0011                     	;# 
    93     0012                     	;# 
    94     0013                     	;# 
    95     0015                     	;# 
    96     0016                     	;# 
    97     0016                     	;# 
    98     0017                     	;# 
    99     0018                     	;# 
   100     0019                     	;# 
   101     001A                     	;# 
   102     001B                     	;# 
   103     001C                     	;# 
   104     001E                     	;# 
   105     001F                     	;# 
   106     008C                     	;# 
   107     008D                     	;# 
   108     008E                     	;# 
   109     0090                     	;# 
   110     0091                     	;# 
   111     0092                     	;# 
   112     0093                     	;# 
   113     0095                     	;# 
   114     0096                     	;# 
   115     0097                     	;# 
   116     0098                     	;# 
   117     0099                     	;# 
   118     009A                     	;# 
   119     009B                     	;# 
   120     009B                     	;# 
   121     009C                     	;# 
   122     009D                     	;# 
   123     009E                     	;# 
   124     010C                     	;# 
   125     010D                     	;# 
   126     010E                     	;# 
   127     0110                     	;# 
   128     0111                     	;# 
   129     0112                     	;# 
   130     0113                     	;# 
   131     0114                     	;# 
   132     0115                     	;# 
   133     0116                     	;# 
   134     0117                     	;# 
   135     0118                     	;# 
   136     0119                     	;# 
   137     011A                     	;# 
   138     011B                     	;# 
   139     011D                     	;# 
   140     018C                     	;# 
   141     018D                     	;# 
   142     0191                     	;# 
   143     0191                     	;# 
   144     0192                     	;# 
   145     0193                     	;# 
   146     0193                     	;# 
   147     0193                     	;# 
   148     0194                     	;# 
   149     0195                     	;# 
   150     0196                     	;# 
   151     0199                     	;# 
   152     019A                     	;# 
   153     019B                     	;# 
   154     019B                     	;# 
   155     019B                     	;# 
   156     019B                     	;# 
   157     019C                     	;# 
   158     019C                     	;# 
   159     019D                     	;# 
   160     019E                     	;# 
   161     019F                     	;# 
   162     020D                     	;# 
   163     0210                     	;# 
   164     0211                     	;# 
   165     0212                     	;# 
   166     0213                     	;# 
   167     0214                     	;# 
   168     0215                     	;# 
   169     0215                     	;# 
   170     0216                     	;# 
   171     0217                     	;# 
   172     0291                     	;# 
   173     0291                     	;# 
   174     0292                     	;# 
   175     0293                     	;# 
   176     0294                     	;# 
   177     0295                     	;# 
   178     0295                     	;# 
   179     0296                     	;# 
   180     0298                     	;# 
   181     0298                     	;# 
   182     0299                     	;# 
   183     029A                     	;# 
   184     029B                     	;# 
   185     029C                     	;# 
   186     029C                     	;# 
   187     029D                     	;# 
   188     029E                     	;# 
   189     029F                     	;# 
   190     0311                     	;# 
   191     0311                     	;# 
   192     0312                     	;# 
   193     0313                     	;# 
   194     0314                     	;# 
   195     0315                     	;# 
   196     0315                     	;# 
   197     0316                     	;# 
   198     0318                     	;# 
   199     0318                     	;# 
   200     0319                     	;# 
   201     031A                     	;# 
   202     031C                     	;# 
   203     031C                     	;# 
   204     031D                     	;# 
   205     031E                     	;# 
   206     0394                     	;# 
   207     0395                     	;# 
   208     0396                     	;# 
   209     0415                     	;# 
   210     0416                     	;# 
   211     0417                     	;# 
   212     041C                     	;# 
   213     041D                     	;# 
   214     041E                     	;# 
   215     0791                     	;# 
   216     0792                     	;# 
   217     0793                     	;# 
   218     0794                     	;# 
   219     0795                     	;# 
   220     0798                     	;# 
   221     0799                     	;# 
   222     07A0                     	;# 
   223     07A1                     	;# 
   224     07A3                     	;# 
   225     07A4                     	;# 
   226     07A6                     	;# 
   227     07A7                     	;# 
   228     07A9                     	;# 
   229     07AA                     	;# 
   230     0FE4                     	;# 
   231     0FE5                     	;# 
   232     0FE6                     	;# 
   233     0FE7                     	;# 
   234     0FE8                     	;# 
   235     0FE9                     	;# 
   236     0FEA                     	;# 
   237     0FEB                     	;# 
   238     0FED                     	;# 
   239     0FEE                     	;# 
   240     0FEF                     	;# 
   241     0000                     	;# 
   242     0001                     	;# 
   243     0002                     	;# 
   244     0003                     	;# 
   245     0004                     	;# 
   246     0005                     	;# 
   247     0006                     	;# 
   248     0007                     	;# 
   249     0008                     	;# 
   250     0009                     	;# 
   251     000A                     	;# 
   252     000B                     	;# 
   253     000C                     	;# 
   254     000D                     	;# 
   255     000E                     	;# 
   256     0010                     	;# 
   257     0011                     	;# 
   258     0012                     	;# 
   259     0013                     	;# 
   260     0015                     	;# 
   261     0016                     	;# 
   262     0016                     	;# 
   263     0017                     	;# 
   264     0018                     	;# 
   265     0019                     	;# 
   266     001A                     	;# 
   267     001B                     	;# 
   268     001C                     	;# 
   269     001E                     	;# 
   270     001F                     	;# 
   271     008C                     	;# 
   272     008D                     	;# 
   273     008E                     	;# 
   274     0090                     	;# 
   275     0091                     	;# 
   276     0092                     	;# 
   277     0093                     	;# 
   278     0095                     	;# 
   279     0096                     	;# 
   280     0097                     	;# 
   281     0098                     	;# 
   282     0099                     	;# 
   283     009A                     	;# 
   284     009B                     	;# 
   285     009B                     	;# 
   286     009C                     	;# 
   287     009D                     	;# 
   288     009E                     	;# 
   289     010C                     	;# 
   290     010D                     	;# 
   291     010E                     	;# 
   292     0110                     	;# 
   293     0111                     	;# 
   294     0112                     	;# 
   295     0113                     	;# 
   296     0114                     	;# 
   297     0115                     	;# 
   298     0116                     	;# 
   299     0117                     	;# 
   300     0118                     	;# 
   301     0119                     	;# 
   302     011A                     	;# 
   303     011B                     	;# 
   304     011D                     	;# 
   305     018C                     	;# 
   306     018D                     	;# 
   307     0191                     	;# 
   308     0191                     	;# 
   309     0192                     	;# 
   310     0193                     	;# 
   311     0193                     	;# 
   312     0193                     	;# 
   313     0194                     	;# 
   314     0195                     	;# 
   315     0196                     	;# 
   316     0199                     	;# 
   317     019A                     	;# 
   318     019B                     	;# 
   319     019B                     	;# 
   320     019B                     	;# 
   321     019B                     	;# 
   322     019C                     	;# 
   323     019C                     	;# 
   324     019D                     	;# 
   325     019E                     	;# 
   326     019F                     	;# 
   327     020D                     	;# 
   328     0210                     	;# 
   329     0211                     	;# 
   330     0212                     	;# 
   331     0213                     	;# 
   332     0214                     	;# 
   333     0215                     	;# 
   334     0215                     	;# 
   335     0216                     	;# 
   336     0217                     	;# 
   337     0291                     	;# 
   338     0291                     	;# 
   339     0292                     	;# 
   340     0293                     	;# 
   341     0294                     	;# 
   342     0295                     	;# 
   343     0295                     	;# 
   344     0296                     	;# 
   345     0298                     	;# 
   346     0298                     	;# 
   347     0299                     	;# 
   348     029A                     	;# 
   349     029B                     	;# 
   350     029C                     	;# 
   351     029C                     	;# 
   352     029D                     	;# 
   353     029E                     	;# 
   354     029F                     	;# 
   355     0311                     	;# 
   356     0311                     	;# 
   357     0312                     	;# 
   358     0313                     	;# 
   359     0314                     	;# 
   360     0315                     	;# 
   361     0315                     	;# 
   362     0316                     	;# 
   363     0318                     	;# 
   364     0318                     	;# 
   365     0319                     	;# 
   366     031A                     	;# 
   367     031C                     	;# 
   368     031C                     	;# 
   369     031D                     	;# 
   370     031E                     	;# 
   371     0394                     	;# 
   372     0395                     	;# 
   373     0396                     	;# 
   374     0415                     	;# 
   375     0416                     	;# 
   376     0417                     	;# 
   377     041C                     	;# 
   378     041D                     	;# 
   379     041E                     	;# 
   380     0791                     	;# 
   381     0792                     	;# 
   382     0793                     	;# 
   383     0794                     	;# 
   384     0795                     	;# 
   385     0798                     	;# 
   386     0799                     	;# 
   387     07A0                     	;# 
   388     07A1                     	;# 
   389     07A3                     	;# 
   390     07A4                     	;# 
   391     07A6                     	;# 
   392     07A7                     	;# 
   393     07A9                     	;# 
   394     07AA                     	;# 
   395     0FE4                     	;# 
   396     0FE5                     	;# 
   397     0FE6                     	;# 
   398     0FE7                     	;# 
   399     0FE8                     	;# 
   400     0FE9                     	;# 
   401     0FEA                     	;# 
   402     0FEB                     	;# 
   403     0FED                     	;# 
   404     0FEE                     	;# 
   405     0FEF                     	;# 
   406     0000                     	;# 
   407     0001                     	;# 
   408     0002                     	;# 
   409     0003                     	;# 
   410     0004                     	;# 
   411     0005                     	;# 
   412     0006                     	;# 
   413     0007                     	;# 
   414     0008                     	;# 
   415     0009                     	;# 
   416     000A                     	;# 
   417     000B                     	;# 
   418     000C                     	;# 
   419     000D                     	;# 
   420     000E                     	;# 
   421     0010                     	;# 
   422     0011                     	;# 
   423     0012                     	;# 
   424     0013                     	;# 
   425     0015                     	;# 
   426     0016                     	;# 
   427     0016                     	;# 
   428     0017                     	;# 
   429     0018                     	;# 
   430     0019                     	;# 
   431     001A                     	;# 
   432     001B                     	;# 
   433     001C                     	;# 
   434     001E                     	;# 
   435     001F                     	;# 
   436     008C                     	;# 
   437     008D                     	;# 
   438     008E                     	;# 
   439     0090                     	;# 
   440     0091                     	;# 
   441     0092                     	;# 
   442     0093                     	;# 
   443     0095                     	;# 
   444     0096                     	;# 
   445     0097                     	;# 
   446     0098                     	;# 
   447     0099                     	;# 
   448     009A                     	;# 
   449     009B                     	;# 
   450     009B                     	;# 
   451     009C                     	;# 
   452     009D                     	;# 
   453     009E                     	;# 
   454     010C                     	;# 
   455     010D                     	;# 
   456     010E                     	;# 
   457     0110                     	;# 
   458     0111                     	;# 
   459     0112                     	;# 
   460     0113                     	;# 
   461     0114                     	;# 
   462     0115                     	;# 
   463     0116                     	;# 
   464     0117                     	;# 
   465     0118                     	;# 
   466     0119                     	;# 
   467     011A                     	;# 
   468     011B                     	;# 
   469     011D                     	;# 
   470     018C                     	;# 
   471     018D                     	;# 
   472     0191                     	;# 
   473     0191                     	;# 
   474     0192                     	;# 
   475     0193                     	;# 
   476     0193                     	;# 
   477     0193                     	;# 
   478     0194                     	;# 
   479     0195                     	;# 
   480     0196                     	;# 
   481     0199                     	;# 
   482     019A                     	;# 
   483     019B                     	;# 
   484     019B                     	;# 
   485     019B                     	;# 
   486     019B                     	;# 
   487     019C                     	;# 
   488     019C                     	;# 
   489     019D                     	;# 
   490     019E                     	;# 
   491     019F                     	;# 
   492     020D                     	;# 
   493     0210                     	;# 
   494     0211                     	;# 
   495     0212                     	;# 
   496     0213                     	;# 
   497     0214                     	;# 
   498     0215                     	;# 
   499     0215                     	;# 
   500     0216                     	;# 
   501     0217                     	;# 
   502     0291                     	;# 
   503     0291                     	;# 
   504     0292                     	;# 
   505     0293                     	;# 
   506     0294                     	;# 
   507     0295                     	;# 
   508     0295                     	;# 
   509     0296                     	;# 
   510     0298                     	;# 
   511     0298                     	;# 
   512     0299                     	;# 
   513     029A                     	;# 
   514     029B                     	;# 
   515     029C                     	;# 
   516     029C                     	;# 
   517     029D                     	;# 
   518     029E                     	;# 
   519     029F                     	;# 
   520     0311                     	;# 
   521     0311                     	;# 
   522     0312                     	;# 
   523     0313                     	;# 
   524     0314                     	;# 
   525     0315                     	;# 
   526     0315                     	;# 
   527     0316                     	;# 
   528     0318                     	;# 
   529     0318                     	;# 
   530     0319                     	;# 
   531     031A                     	;# 
   532     031C                     	;# 
   533     031C                     	;# 
   534     031D                     	;# 
   535     031E                     	;# 
   536     0394                     	;# 
   537     0395                     	;# 
   538     0396                     	;# 
   539     0415                     	;# 
   540     0416                     	;# 
   541     0417                     	;# 
   542     041C                     	;# 
   543     041D                     	;# 
   544     041E                     	;# 
   545     0791                     	;# 
   546     0792                     	;# 
   547     0793                     	;# 
   548     0794                     	;# 
   549     0795                     	;# 
   550     0798                     	;# 
   551     0799                     	;# 
   552     07A0                     	;# 
   553     07A1                     	;# 
   554     07A3                     	;# 
   555     07A4                     	;# 
   556     07A6                     	;# 
   557     07A7                     	;# 
   558     07A9                     	;# 
   559     07AA                     	;# 
   560     0FE4                     	;# 
   561     0FE5                     	;# 
   562     0FE6                     	;# 
   563     0FE7                     	;# 
   564     0FE8                     	;# 
   565     0FE9                     	;# 
   566     0FEA                     	;# 
   567     0FEB                     	;# 
   568     0FED                     	;# 
   569     0FEE                     	;# 
   570     0FEF                     	;# 
   571     0000                     	;# 
   572     0001                     	;# 
   573     0002                     	;# 
   574     0003                     	;# 
   575     0004                     	;# 
   576     0005                     	;# 
   577     0006                     	;# 
   578     0007                     	;# 
   579     0008                     	;# 
   580     0009                     	;# 
   581     000A                     	;# 
   582     000B                     	;# 
   583     000C                     	;# 
   584     000D                     	;# 
   585     000E                     	;# 
   586     0010                     	;# 
   587     0011                     	;# 
   588     0012                     	;# 
   589     0013                     	;# 
   590     0015                     	;# 
   591     0016                     	;# 
   592     0016                     	;# 
   593     0017                     	;# 
   594     0018                     	;# 
   595     0019                     	;# 
   596     001A                     	;# 
   597     001B                     	;# 
   598     001C                     	;# 
   599     001E                     	;# 
   600     001F                     	;# 
   601     008C                     	;# 
   602     008D                     	;# 
   603     008E                     	;# 
   604     0090                     	;# 
   605     0091                     	;# 
   606     0092                     	;# 
   607     0093                     	;# 
   608     0095                     	;# 
   609     0096                     	;# 
   610     0097                     	;# 
   611     0098                     	;# 
   612     0099                     	;# 
   613     009A                     	;# 
   614     009B                     	;# 
   615     009B                     	;# 
   616     009C                     	;# 
   617     009D                     	;# 
   618     009E                     	;# 
   619     010C                     	;# 
   620     010D                     	;# 
   621     010E                     	;# 
   622     0110                     	;# 
   623     0111                     	;# 
   624     0112                     	;# 
   625     0113                     	;# 
   626     0114                     	;# 
   627     0115                     	;# 
   628     0116                     	;# 
   629     0117                     	;# 
   630     0118                     	;# 
   631     0119                     	;# 
   632     011A                     	;# 
   633     011B                     	;# 
   634     011D                     	;# 
   635     018C                     	;# 
   636     018D                     	;# 
   637     0191                     	;# 
   638     0191                     	;# 
   639     0192                     	;# 
   640     0193                     	;# 
   641     0193                     	;# 
   642     0193                     	;# 
   643     0194                     	;# 
   644     0195                     	;# 
   645     0196                     	;# 
   646     0199                     	;# 
   647     019A                     	;# 
   648     019B                     	;# 
   649     019B                     	;# 
   650     019B                     	;# 
   651     019B                     	;# 
   652     019C                     	;# 
   653     019C                     	;# 
   654     019D                     	;# 
   655     019E                     	;# 
   656     019F                     	;# 
   657     020D                     	;# 
   658     0210                     	;# 
   659     0211                     	;# 
   660     0212                     	;# 
   661     0213                     	;# 
   662     0214                     	;# 
   663     0215                     	;# 
   664     0215                     	;# 
   665     0216                     	;# 
   666     0217                     	;# 
   667     0291                     	;# 
   668     0291                     	;# 
   669     0292                     	;# 
   670     0293                     	;# 
   671     0294                     	;# 
   672     0295                     	;# 
   673     0295                     	;# 
   674     0296                     	;# 
   675     0298                     	;# 
   676     0298                     	;# 
   677     0299                     	;# 
   678     029A                     	;# 
   679     029B                     	;# 
   680     029C                     	;# 
   681     029C                     	;# 
   682     029D                     	;# 
   683     029E                     	;# 
   684     029F                     	;# 
   685     0311                     	;# 
   686     0311                     	;# 
   687     0312                     	;# 
   688     0313                     	;# 
   689     0314                     	;# 
   690     0315                     	;# 
   691     0315                     	;# 
   692     0316                     	;# 
   693     0318                     	;# 
   694     0318                     	;# 
   695     0319                     	;# 
   696     031A                     	;# 
   697     031C                     	;# 
   698     031C                     	;# 
   699     031D                     	;# 
   700     031E                     	;# 
   701     0394                     	;# 
   702     0395                     	;# 
   703     0396                     	;# 
   704     0415                     	;# 
   705     0416                     	;# 
   706     0417                     	;# 
   707     041C                     	;# 
   708     041D                     	;# 
   709     041E                     	;# 
   710     0791                     	;# 
   711     0792                     	;# 
   712     0793                     	;# 
   713     0794                     	;# 
   714     0795                     	;# 
   715     0798                     	;# 
   716     0799                     	;# 
   717     07A0                     	;# 
   718     07A1                     	;# 
   719     07A3                     	;# 
   720     07A4                     	;# 
   721     07A6                     	;# 
   722     07A7                     	;# 
   723     07A9                     	;# 
   724     07AA                     	;# 
   725     0FE4                     	;# 
   726     0FE5                     	;# 
   727     0FE6                     	;# 
   728     0FE7                     	;# 
   729     0FE8                     	;# 
   730     0FE9                     	;# 
   731     0FEA                     	;# 
   732     0FEB                     	;# 
   733     0FED                     	;# 
   734     0FEE                     	;# 
   735     0FEF                     	;# 
   736                           
   737                           	psect	stringtext1
   738     1000                     __pstringtext1:
   739     1000                     _DisplayNum:
   740     1000  343F               	retlw	63
   741     1001  3406               	retlw	6
   742     1002  345B               	retlw	91
   743     1003  344F               	retlw	79
   744     1004  3466               	retlw	102
   745     1005  346D               	retlw	109
   746     1006  347D               	retlw	125
   747     1007  3407               	retlw	7
   748     1008  347F               	retlw	127
   749     1009  346F               	retlw	111
   750     100A                     __end_of_DisplayNum:
   751     000B                     _INTCONbits	set	11
   752     0003                     _STATUSbits	set	3
   753     000D                     _PORTBbits	set	13
   754     000D                     _PORTB	set	13
   755     000E                     _PORTC	set	14
   756     001B                     _PR2	set	27
   757     001A                     _TMR2	set	26
   758     005D                     _TMR0IE	set	93
   759     005A                     _TMR0IF	set	90
   760     005F                     _GIE	set	95
   761     0089                     _TMR2IF	set	137
   762     00E2                     _TMR2ON	set	226
   763     0095                     _OPTION_REG	set	149
   764     0099                     _OSCCON	set	153
   765     008E                     _TRISC	set	142
   766     008D                     _TRISB	set	141
   767     04AD                     _T0CS	set	1197
   768     0464                     _TRISA4	set	1124
   769     0489                     _TMR2IE	set	1161
   770     010E                     _LATC	set	270
   771     0191                     _EEADR	set	401
   772     0196                     _EECON2	set	406
   773     0193                     _EEDATA	set	403
   774     0195                     _EECON1	set	405
   775     0195                     _EECON1bits	set	405
   776     018D                     _ANSELB	set	397
   777     031C                     _CCPR5L	set	796
   778     031E                     _CCP5CON	set	798
   779                           
   780                           	psect	cinit
   781     0065                     start_initialization:	
   782                           ; #config settings
   783                           
   784     0065                     __initialization:
   785                           
   786                           ; Clear objects allocated to COMMON
   787     0065  01FC               	clrf	__pbssCOMMON& (0+127)
   788                           
   789                           ; Clear objects allocated to BANK0
   790     0066  305A               	movlw	low __pbssBANK0
   791     0067  0084               	movwf	4
   792     0068  3000               	movlw	high __pbssBANK0
   793     0069  0085               	movwf	5
   794     006A  3016               	movlw	22
   795     006B  318F  2747  3180   	fcall	clear_ram0
   796                           
   797                           ; Clear objects allocated to BANK1
   798     006E  0021               	movlb	1	; select bank1
   799     006F  01A0               	clrf	__pbssBANK1& (0+127)
   800     0070  01A1               	clrf	(__pbssBANK1+1)& (0+127)
   801     0071  01A2               	clrf	(__pbssBANK1+2)& (0+127)
   802     0072  01A3               	clrf	(__pbssBANK1+3)& (0+127)
   803     0073                     end_of_initialization:	
   804                           ;End of C runtime variable initialization code
   805                           
   806     0073                     __end_of__initialization:
   807     0073  107E               	bcf	int$flags,0	;clear compiler interrupt flag (level 1)
   808     0074  0020               	movlb	0
   809     0075  3183  2B5D         	ljmp	_main	;jump to C main() function
   810                           
   811                           	psect	bssCOMMON
   812     007C                     __pbssCOMMON:
   813     007C                     _pos:
   814     007C                     	ds	1
   815                           
   816                           	psect	bssBANK0
   817     005A                     __pbssBANK0:
   818     005A                     _digipos:
   819     005A                     	ds	4
   820     005E                     _pwm_period:
   821     005E                     	ds	4
   822     0062                     _last_value:
   823     0062                     	ds	2
   824     0064                     _curr_value:
   825     0064                     	ds	2
   826     0066                     _max_value:
   827     0066                     	ds	2
   828     0068                     _pwm_value:
   829     0068                     	ds	2
   830     006A                     _duty_cycle:
   831     006A                     	ds	2
   832     006C                     _is_pwm_loaded:
   833     006C                     	ds	1
   834     006D                     _is_pwm_configured:
   835     006D                     	ds	1
   836     006E                     _last_value_status:
   837     006E                     	ds	1
   838     006F                     _on_time_int:
   839     006F                     	ds	1
   840                           
   841                           	psect	bssBANK1
   842     00A0                     __pbssBANK1:
   843     00A0                     _on_time:
   844     00A0                     	ds	4
   845                           
   846                           	psect	clrtext
   847     0F47                     clear_ram0:	
   848                           ;	Called with FSR0 containing the base address, and
   849                           ;	WREG with the size to clear
   850                           
   851     0F47  0064               	clrwdt	;clear the watchdog before getting into this loop
   852     0F48                     clrloop0:
   853     0F48  0180               	clrf	0	;clear RAM location pointed to by FSR
   854     0F49  3101               	addfsr 0,1
   855     0F4A  0B89               	decfsz	9,f	;Have we reached the end of clearing yet?
   856     0F4B  2F48               	goto	clrloop0	;have we reached the end yet?
   857     0F4C  3400               	retlw	0	;all done for this memory range, return
   858                           
   859                           	psect	cstackCOMMON
   860     0070                     __pcstackCOMMON:
   861     0070                     ?_eeprom_read:
   862     0070                     ?_load_pwm:	
   863                           ; 1 bytes @ 0x0
   864                           
   865     0070                     ?_initPwm:	
   866                           ; 1 bytes @ 0x0
   867                           
   868     0070                     ?_init_port:	
   869                           ; 1 bytes @ 0x0
   870                           
   871     0070                     ?_is_inc_switch_pressed:	
   872                           ; 1 bytes @ 0x0
   873                           
   874     0070                     ?_is_dec_switch_pressed:	
   875                           ; 1 bytes @ 0x0
   876                           
   877     0070                     ?_init_timer:	
   878                           ; 1 bytes @ 0x0
   879                           
   880     0070                     ?_isr:	
   881                           ; 1 bytes @ 0x0
   882                           
   883     0070                     ??_isr:	
   884                           ; 1 bytes @ 0x0
   885                           
   886     0070                     ?_display_SET_command:	
   887                           ; 1 bytes @ 0x0
   888                           
   889     0070                     ?_display_FR_command:	
   890                           ; 1 bytes @ 0x0
   891                           
   892     0070                     ?_get_and_set_increment:	
   893                           ; 1 bytes @ 0x0
   894                           
   895     0070                     ?_get_and_set_decrement:	
   896                           ; 1 bytes @ 0x0
   897                           
   898     0070                     ?_init_EEPROM:	
   899                           ; 1 bytes @ 0x0
   900                           
   901     0070                     ?_check_and_set_max:	
   902                           ; 1 bytes @ 0x0
   903                           
   904     0070                     ?_set_factory_settings:	
   905                           ; 1 bytes @ 0x0
   906                           
   907     0070                     ?_init:	
   908                           ; 1 bytes @ 0x0
   909                           
   910     0070                     ?_main:	
   911                           ; 1 bytes @ 0x0
   912                           
   913                           
   914                           ; 1 bytes @ 0x0
   915     0070                     	ds	1
   916     0071                     ??_eeprom_read:
   917     0071                     ?_eeprom_write:	
   918                           ; 1 bytes @ 0x1
   919                           
   920     0071                     ??_load_pwm:	
   921                           ; 1 bytes @ 0x1
   922                           
   923     0071                     ??_init_port:	
   924                           ; 1 bytes @ 0x1
   925                           
   926     0071                     ??_is_inc_switch_pressed:	
   927                           ; 1 bytes @ 0x1
   928                           
   929     0071                     ??_is_dec_switch_pressed:	
   930                           ; 1 bytes @ 0x1
   931                           
   932     0071                     ??_init_timer:	
   933                           ; 1 bytes @ 0x1
   934                           
   935     0071                     ??_display_SET_command:	
   936                           ; 1 bytes @ 0x1
   937                           
   938     0071                     ??_display_FR_command:	
   939                           ; 1 bytes @ 0x1
   940                           
   941     0071                     ?__Umul8_16:	
   942                           ; 1 bytes @ 0x1
   943                           
   944     0071                     ?___lwdiv:	
   945                           ; 2 bytes @ 0x1
   946                           
   947     0071                     eeprom_write@value:	
   948                           ; 2 bytes @ 0x1
   949                           
   950     0071                     __Umul8_16@multiplicand:	
   951                           ; 1 bytes @ 0x1
   952                           
   953     0071                     ___lwdiv@divisor:	
   954                           ; 1 bytes @ 0x1
   955                           
   956                           
   957                           ; 2 bytes @ 0x1
   958     0071                     	ds	1
   959     0072                     ??_eeprom_write:
   960     0072                     is_inc_switch_pressed@switch_status:	
   961                           ; 1 bytes @ 0x2
   962                           
   963     0072                     is_dec_switch_pressed@switch_status:	
   964                           ; 1 bytes @ 0x2
   965                           
   966                           
   967                           ; 1 bytes @ 0x2
   968     0072                     	ds	1
   969     0073                     ??__Umul8_16:
   970     0073                     load_pwm@lsb:	
   971                           ; 1 bytes @ 0x3
   972                           
   973     0073                     ___lwdiv@dividend:	
   974                           ; 1 bytes @ 0x3
   975                           
   976                           
   977                           ; 2 bytes @ 0x3
   978     0073                     	ds	1
   979     0074                     load_pwm@msb:
   980     0074                     eeprom_read@addr:	
   981                           ; 1 bytes @ 0x4
   982                           
   983     0074                     eeprom_write@addr:	
   984                           ; 1 bytes @ 0x4
   985                           
   986                           
   987                           ; 1 bytes @ 0x4
   988     0074                     	ds	1
   989     0075                     ??_init_EEPROM:
   990     0075                     ??_set_factory_settings:	
   991                           ; 1 bytes @ 0x5
   992                           
   993     0075                     ??___lwdiv:	
   994                           ; 1 bytes @ 0x5
   995                           
   996     0075                     load_pwm@pwm_value:	
   997                           ; 1 bytes @ 0x5
   998                           
   999     0075                     __Umul8_16@product:	
  1000                           ; 1 bytes @ 0x5
  1001                           
  1002                           
  1003                           ; 2 bytes @ 0x5
  1004     0075                     	ds	1
  1005     0076                     ??_initPwm:
  1006     0076                     ___lwdiv@counter:	
  1007                           ; 1 bytes @ 0x6
  1008                           
  1009                           
  1010                           ; 1 bytes @ 0x6
  1011     0076                     	ds	1
  1012     0077                     set_factory_settings@factory_setting_mode_enabled:
  1013     0077                     ___lwdiv@quotient:	
  1014                           ; 1 bytes @ 0x7
  1015                           
  1016     0077                     __Umul8_16@word_mpld:	
  1017                           ; 2 bytes @ 0x7
  1018                           
  1019                           
  1020                           ; 2 bytes @ 0x7
  1021     0077                     	ds	2
  1022     0079                     ??___lwmod:
  1023     0079                     __Umul8_16@multiplier:	
  1024                           ; 1 bytes @ 0x9
  1025                           
  1026                           
  1027                           ; 1 bytes @ 0x9
  1028     0079                     	ds	1
  1029     007A                     ___fltol@sign1:
  1030     007A                     ___lwmod@counter:	
  1031                           ; 1 bytes @ 0xA
  1032                           
  1033                           
  1034                           ; 1 bytes @ 0xA
  1035     007A                     	ds	1
  1036     007B                     ??_display_digit:
  1037     007B                     ??_get_and_set_increment:	
  1038                           ; 1 bytes @ 0xB
  1039                           
  1040     007B                     ??_get_and_set_decrement:	
  1041                           ; 1 bytes @ 0xB
  1042                           
  1043     007B                     init@counter:	
  1044                           ; 1 bytes @ 0xB
  1045                           
  1046     007B                     ___fltol@exp1:	
  1047                           ; 1 bytes @ 0xB
  1048                           
  1049                           
  1050                           ; 1 bytes @ 0xB
  1051     007B                     	ds	1
  1052     007C                     ??_main:
  1053                           
  1054                           	psect	cstackBANK0
  1055     0020                     __pcstackBANK0:	
  1056                           ; 1 bytes @ 0xC
  1057                           
  1058     0020                     ?___lwmod:
  1059     0020                     ?___xxtofl:	
  1060                           ; 2 bytes @ 0x0
  1061                           
  1062     0020                     init_EEPROM@last_lower_byte_rd:	
  1063                           ; 4 bytes @ 0x0
  1064                           
  1065     0020                     ___lwmod@divisor:	
  1066                           ; 2 bytes @ 0x0
  1067                           
  1068     0020                     ___xxtofl@val:	
  1069                           ; 2 bytes @ 0x0
  1070                           
  1071                           
  1072                           ; 4 bytes @ 0x0
  1073     0020                     	ds	2
  1074     0022                     init_EEPROM@last_upper_byte_rd:
  1075     0022                     ___lwmod@dividend:	
  1076                           ; 2 bytes @ 0x2
  1077                           
  1078                           
  1079                           ; 2 bytes @ 0x2
  1080     0022                     	ds	2
  1081     0024                     ?_display_digit:
  1082     0024                     ??___xxtofl:	
  1083                           ; 1 bytes @ 0x4
  1084                           
  1085     0024                     display_digit@value:	
  1086                           ; 1 bytes @ 0x4
  1087                           
  1088     0024                     init_EEPROM@max_lower_byte_rd:	
  1089                           ; 2 bytes @ 0x4
  1090                           
  1091                           
  1092                           ; 2 bytes @ 0x4
  1093     0024                     	ds	2
  1094     0026                     ?_set_delays:
  1095     0026                     set_delays@counter:	
  1096                           ; 1 bytes @ 0x6
  1097                           
  1098     0026                     init_EEPROM@max_upper_byte_rd:	
  1099                           ; 2 bytes @ 0x6
  1100                           
  1101                           
  1102                           ; 2 bytes @ 0x6
  1103     0026                     	ds	2
  1104     0028                     ??_set_delays:
  1105     0028                     ___xxtofl@sign:	
  1106                           ; 1 bytes @ 0x8
  1107                           
  1108                           
  1109                           ; 1 bytes @ 0x8
  1110     0028                     	ds	1
  1111     0029                     ___xxtofl@exp:
  1112                           
  1113                           ; 1 bytes @ 0x9
  1114     0029                     	ds	1
  1115     002A                     get_and_set_increment@counter:
  1116     002A                     get_and_set_decrement@counter:	
  1117                           ; 2 bytes @ 0xA
  1118                           
  1119     002A                     ___xxtofl@arg:	
  1120                           ; 2 bytes @ 0xA
  1121                           
  1122                           
  1123                           ; 4 bytes @ 0xA
  1124     002A                     	ds	2
  1125     002C                     ??_check_and_set_max:
  1126                           
  1127                           ; 1 bytes @ 0xC
  1128     002C                     	ds	2
  1129     002E                     ?___flmul:
  1130     002E                     check_and_set_max@max_lower_byte_wr:	
  1131                           ; 4 bytes @ 0xE
  1132                           
  1133     002E                     ___flmul@b:	
  1134                           ; 1 bytes @ 0xE
  1135                           
  1136                           
  1137                           ; 4 bytes @ 0xE
  1138     002E                     	ds	1
  1139     002F                     check_and_set_max@max_value_setting_selected:
  1140                           
  1141                           ; 1 bytes @ 0xF
  1142     002F                     	ds	1
  1143     0030                     check_and_set_max@max_upper_byte_wr:
  1144                           
  1145                           ; 1 bytes @ 0x10
  1146     0030                     	ds	1
  1147     0031                     check_and_set_max@max_eeprom:
  1148                           
  1149                           ; 2 bytes @ 0x11
  1150     0031                     	ds	1
  1151     0032                     ___flmul@a:
  1152                           
  1153                           ; 4 bytes @ 0x12
  1154     0032                     	ds	1
  1155     0033                     check_and_set_max@some_value_set:
  1156                           
  1157                           ; 1 bytes @ 0x13
  1158     0033                     	ds	1
  1159     0034                     ??_init:
  1160                           
  1161                           ; 1 bytes @ 0x14
  1162     0034                     	ds	2
  1163     0036                     ??___flmul:
  1164                           
  1165                           ; 1 bytes @ 0x16
  1166     0036                     	ds	5
  1167     003B                     ___flmul@sign:
  1168                           
  1169                           ; 1 bytes @ 0x1B
  1170     003B                     	ds	1
  1171     003C                     ___flmul@grs:
  1172                           
  1173                           ; 4 bytes @ 0x1C
  1174     003C                     	ds	4
  1175     0040                     ___flmul@aexp:
  1176                           
  1177                           ; 1 bytes @ 0x20
  1178     0040                     	ds	1
  1179     0041                     ___flmul@bexp:
  1180                           
  1181                           ; 1 bytes @ 0x21
  1182     0041                     	ds	1
  1183     0042                     ___flmul@prod:
  1184                           
  1185                           ; 4 bytes @ 0x22
  1186     0042                     	ds	4
  1187     0046                     ___flmul@temp:
  1188                           
  1189                           ; 2 bytes @ 0x26
  1190     0046                     	ds	2
  1191     0048                     ?___fltol:
  1192     0048                     ___fltol@f1:	
  1193                           ; 4 bytes @ 0x28
  1194                           
  1195                           
  1196                           ; 4 bytes @ 0x28
  1197     0048                     	ds	4
  1198     004C                     ??___fltol:
  1199                           
  1200                           ; 1 bytes @ 0x2C
  1201     004C                     	ds	4
  1202     0050                     ?_map_value_to_pwm_resolution:
  1203     0050                     map_value_to_pwm_resolution@x:	
  1204                           ; 2 bytes @ 0x30
  1205                           
  1206                           
  1207                           ; 2 bytes @ 0x30
  1208     0050                     	ds	2
  1209     0052                     map_value_to_pwm_resolution@max_value:
  1210                           
  1211                           ; 2 bytes @ 0x32
  1212     0052                     	ds	2
  1213     0054                     ??_map_value_to_pwm_resolution:
  1214                           
  1215                           ; 1 bytes @ 0x34
  1216     0054                     	ds	4
  1217     0058                     main@last_lower_byte_wr:
  1218                           
  1219                           ; 1 bytes @ 0x38
  1220     0058                     	ds	1
  1221     0059                     main@last_upper_byte_wr:
  1222                           
  1223                           ; 1 bytes @ 0x39
  1224     0059                     	ds	1
  1225                           
  1226                           	psect	maintext
  1227     035D                     __pmaintext:	
  1228 ;;
  1229 ;;Main: autosize = 0, tempsize = 0, incstack = 0, save=0
  1230 ;;
  1231 ;; *************** function _main *****************
  1232 ;; Defined at:
  1233 ;;		line 530 in file "main.c"
  1234 ;; Parameters:    Size  Location     Type
  1235 ;;		None
  1236 ;; Auto vars:     Size  Location     Type
  1237 ;;  last_upper_b    1   57[BANK0 ] unsigned char 
  1238 ;;  last_lower_b    1   56[BANK0 ] unsigned char 
  1239 ;;  any_switch_p    1    0        unsigned char 
  1240 ;; Return value:  Size  Location     Type
  1241 ;;                  1    wreg      void 
  1242 ;; Registers used:
  1243 ;;		wreg, fsr0l, fsr0h, status,2, status,0, pclath, cstack
  1244 ;; Tracked objects:
  1245 ;;		On entry : B1F/0
  1246 ;;		On exit  : 0/0
  1247 ;;		Unchanged: 0/0
  1248 ;; Data sizes:     COMMON   BANK0   BANK1   BANK2   BANK3   BANK4   BANK5
  1249 ;;      Params:         0       0       0       0       0       0       0
  1250 ;;      Locals:         0       2       0       0       0       0       0
  1251 ;;      Temps:          0       0       0       0       0       0       0
  1252 ;;      Totals:         0       2       0       0       0       0       0
  1253 ;;Total ram usage:        2 bytes
  1254 ;; Hardware stack levels required when called: 7
  1255 ;; This function calls:
  1256 ;;		_display_digit
  1257 ;;		_eeprom_write
  1258 ;;		_get_and_set_decrement
  1259 ;;		_get_and_set_increment
  1260 ;;		_init
  1261 ;;		_is_dec_switch_pressed
  1262 ;;		_is_inc_switch_pressed
  1263 ;;		_load_pwm
  1264 ;;		_map_value_to_pwm_resolution
  1265 ;; This function is called by:
  1266 ;;		Startup code after reset
  1267 ;; This function uses a non-reentrant model
  1268 ;;
  1269                           
  1270     035D                     _main:	
  1271                           ;psect for function _main
  1272                           
  1273     035D                     l2634:	
  1274                           ;incstack = 0
  1275                           ; Regs used in _main: [wreg-fsr0h+status,2+status,0+pclath+cstack]
  1276                           
  1277     035D                     l2636:
  1278                           
  1279                           ;main.c: 533:     display_digit(0);
  1280     035D  3000               	movlw	0
  1281     035E  0020               	movlb	0	; select bank0
  1282     035F  00A4               	movwf	display_digit@value
  1283     0360  00A5               	movwf	display_digit@value+1
  1284     0361  3184  2469  3183   	fcall	_display_digit
  1285     0364                     l2638:
  1286                           
  1287                           ;main.c: 534:     init();
  1288     0364  3186  26F2  3183   	fcall	_init
  1289     0367                     l2640:
  1290                           
  1291                           ;main.c: 535:     curr_value = last_value;
  1292     0367  0020               	movlb	0	; select bank0
  1293     0368  0863               	movf	_last_value+1,w
  1294     0369  00E5               	movwf	_curr_value+1
  1295     036A  0862               	movf	_last_value,w
  1296     036B  00E4               	movwf	_curr_value
  1297     036C                     l2642:
  1298                           
  1299                           ;main.c: 537:     {;main.c: 539:         if(is_inc_switch_pressed())
  1300     036C  318F  27C6  3183   	fcall	_is_inc_switch_pressed
  1301     036F  3A00               	xorlw	0
  1302     0370  1903               	skipnz
  1303     0371  2B73               	goto	u3081
  1304     0372  2B74               	goto	u3080
  1305     0373                     u3081:
  1306     0373  2B78               	goto	l2648
  1307     0374                     u3080:
  1308     0374                     l2644:
  1309                           
  1310                           ;main.c: 540:         {;main.c: 541:             get_and_set_increment();
  1311     0374  3187  2761  3183   	fcall	_get_and_set_increment
  1312     0377                     l2646:
  1313                           
  1314                           ;main.c: 543:         }
  1315     0377  2B84               	goto	l203
  1316     0378                     l2648:
  1317     0378  318F  27AD  3183   	fcall	_is_dec_switch_pressed
  1318     037B  3A00               	xorlw	0
  1319     037C  1903               	skipnz
  1320     037D  2B7F               	goto	u3091
  1321     037E  2B80               	goto	u3090
  1322     037F                     u3091:
  1323     037F  2B84               	goto	l203
  1324     0380                     u3090:
  1325     0380                     l2650:
  1326                           
  1327                           ;main.c: 545:         {;main.c: 546:             get_and_set_decrement();
  1328     0380  3187  27B6  3183   	fcall	_get_and_set_decrement
  1329     0383  2B77               	goto	l2646
  1330     0384                     l203:
  1331                           
  1332                           ;main.c: 550:         display_digit(curr_value);
  1333     0384  0020               	movlb	0	; select bank0
  1334     0385  0865               	movf	_curr_value+1,w
  1335     0386  00A5               	movwf	display_digit@value+1
  1336     0387  0864               	movf	_curr_value,w
  1337     0388  00A4               	movwf	display_digit@value
  1338     0389  3184  2469  3183   	fcall	_display_digit
  1339     038C                     l2654:
  1340                           
  1341                           ;main.c: 554:             duty_cycle = map_value_to_pwm_resolution(curr_value,max_value)
      +                          ;
  1342     038C  0020               	movlb	0	; select bank0
  1343     038D  0865               	movf	_curr_value+1,w
  1344     038E  00D1               	movwf	map_value_to_pwm_resolution@x+1
  1345     038F  0864               	movf	_curr_value,w
  1346     0390  00D0               	movwf	map_value_to_pwm_resolution@x
  1347     0391  0867               	movf	_max_value+1,w
  1348     0392  00D3               	movwf	map_value_to_pwm_resolution@max_value+1
  1349     0393  0866               	movf	_max_value,w
  1350     0394  00D2               	movwf	map_value_to_pwm_resolution@max_value
  1351     0395  3186  261C  3183   	fcall	_map_value_to_pwm_resolution
  1352     0398  0020               	movlb	0	; select bank0
  1353     0399  0851               	movf	?_map_value_to_pwm_resolution+1,w
  1354     039A  00EB               	movwf	_duty_cycle+1
  1355     039B  0850               	movf	?_map_value_to_pwm_resolution,w
  1356     039C  00EA               	movwf	_duty_cycle
  1357     039D                     l2656:
  1358                           
  1359                           ;main.c: 555:             load_pwm(duty_cycle);
  1360     039D  086A               	movf	_duty_cycle,w
  1361     039E  318F  27DF  3183   	fcall	_load_pwm
  1362     03A1                     l2658:
  1363                           
  1364                           ;main.c: 559:         if ( last_value_status == 0x3F && (last_value != curr_value) )
  1365     03A1  303F               	movlw	63
  1366     03A2  0020               	movlb	0	; select bank0
  1367     03A3  066E               	xorwf	_last_value_status,w
  1368     03A4  1D03               	btfss	3,2
  1369     03A5  2BA7               	goto	u3101
  1370     03A6  2BA8               	goto	u3100
  1371     03A7                     u3101:
  1372     03A7  2BC3               	goto	l2670
  1373     03A8                     u3100:
  1374     03A8                     l2660:
  1375     03A8  0865               	movf	_curr_value+1,w
  1376     03A9  0663               	xorwf	_last_value+1,w
  1377     03AA  1D03               	skipz
  1378     03AB  2BAE               	goto	u3115
  1379     03AC  0864               	movf	_curr_value,w
  1380     03AD  0662               	xorwf	_last_value,w
  1381     03AE                     u3115:
  1382     03AE  1903               	skipnz
  1383     03AF  2BB1               	goto	u3111
  1384     03B0  2BB2               	goto	u3110
  1385     03B1                     u3111:
  1386     03B1  2BC3               	goto	l2670
  1387     03B2                     u3110:
  1388     03B2                     l2662:
  1389                           
  1390                           ;main.c: 560:         {;main.c: 561:             uint8_t last_lower_byte_wr, last_upper_
      +                          byte_wr ;;main.c: 563:             last_lower_byte_wr = curr_value & 0xFF ;
  1391     03B2  0864               	movf	_curr_value,w
  1392     03B3  00D8               	movwf	main@last_lower_byte_wr
  1393     03B4                     l2664:
  1394                           
  1395                           ;main.c: 564:             last_upper_byte_wr = (curr_value >> 8) & 0xFF ;
  1396     03B4  0865               	movf	_curr_value+1,w
  1397     03B5  00D9               	movwf	main@last_upper_byte_wr
  1398     03B6                     l2666:
  1399                           
  1400                           ;main.c: 565:             eeprom_write(4,last_lower_byte_wr);
  1401     03B6  0858               	movf	main@last_lower_byte_wr,w
  1402     03B7  00F1               	movwf	eeprom_write@value
  1403     03B8  3004               	movlw	4
  1404     03B9  3187  278C  3183   	fcall	_eeprom_write
  1405     03BC                     l2668:
  1406                           
  1407                           ;main.c: 566:             eeprom_write(5,last_upper_byte_wr);
  1408     03BC  0020               	movlb	0	; select bank0
  1409     03BD  0859               	movf	main@last_upper_byte_wr,w
  1410     03BE  00F1               	movwf	eeprom_write@value
  1411     03BF  3005               	movlw	5
  1412     03C0  3187  278C  3183   	fcall	_eeprom_write
  1413     03C3                     l2670:
  1414                           
  1415                           ;main.c: 569:         last_value = curr_value;
  1416     03C3  0020               	movlb	0	; select bank0
  1417     03C4  0865               	movf	_curr_value+1,w
  1418     03C5  00E3               	movwf	_last_value+1
  1419     03C6  0864               	movf	_curr_value,w
  1420     03C7  00E2               	movwf	_last_value
  1421     03C8                     l2672:
  1422                           
  1423                           ;main.c: 571:         if (!(is_pwm_loaded) && (last_value_status == 0x3F))
  1424     03C8  086C               	movf	_is_pwm_loaded,w
  1425     03C9  1D03               	btfss	3,2
  1426     03CA  2BCC               	goto	u3121
  1427     03CB  2BCD               	goto	u3120
  1428     03CC                     u3121:
  1429     03CC  2BEA               	goto	l2680
  1430     03CD                     u3120:
  1431     03CD                     l2674:
  1432     03CD  303F               	movlw	63
  1433     03CE  066E               	xorwf	_last_value_status,w
  1434     03CF  1D03               	btfss	3,2
  1435     03D0  2BD2               	goto	u3131
  1436     03D1  2BD3               	goto	u3130
  1437     03D2                     u3131:
  1438     03D2  2BEA               	goto	l2680
  1439     03D3                     u3130:
  1440     03D3                     l2676:
  1441                           
  1442                           ;main.c: 572:         {;main.c: 573:             duty_cycle = map_value_to_pwm_resolutio
      +                          n(curr_value,max_value);
  1443     03D3  0865               	movf	_curr_value+1,w
  1444     03D4  00D1               	movwf	map_value_to_pwm_resolution@x+1
  1445     03D5  0864               	movf	_curr_value,w
  1446     03D6  00D0               	movwf	map_value_to_pwm_resolution@x
  1447     03D7  0867               	movf	_max_value+1,w
  1448     03D8  00D3               	movwf	map_value_to_pwm_resolution@max_value+1
  1449     03D9  0866               	movf	_max_value,w
  1450     03DA  00D2               	movwf	map_value_to_pwm_resolution@max_value
  1451     03DB  3186  261C  3183   	fcall	_map_value_to_pwm_resolution
  1452     03DE  0020               	movlb	0	; select bank0
  1453     03DF  0851               	movf	?_map_value_to_pwm_resolution+1,w
  1454     03E0  00EB               	movwf	_duty_cycle+1
  1455     03E1  0850               	movf	?_map_value_to_pwm_resolution,w
  1456     03E2  00EA               	movwf	_duty_cycle
  1457                           
  1458                           ;main.c: 574:             load_pwm(duty_cycle);
  1459     03E3  086A               	movf	_duty_cycle,w
  1460     03E4  318F  27DF  3183   	fcall	_load_pwm
  1461     03E7                     l2678:
  1462                           
  1463                           ;main.c: 576:             is_pwm_loaded = 1;
  1464     03E7  0020               	movlb	0	; select bank0
  1465     03E8  01EC               	clrf	_is_pwm_loaded
  1466     03E9  0AEC               	incf	_is_pwm_loaded,f
  1467     03EA                     l2680:
  1468     03EA  2B6C               	goto	l2642
  1469     03EB  3180  2863         	ljmp	start
  1470     03ED                     __end_of_main:
  1471                           
  1472                           	psect	text1
  1473     061C                     __ptext1:	
  1474 ;; *************** function _map_value_to_pwm_resolution *****************
  1475 ;; Defined at:
  1476 ;;		line 115 in file "main.c"
  1477 ;; Parameters:    Size  Location     Type
  1478 ;;  x               2   48[BANK0 ] unsigned short 
  1479 ;;  max_value       2   50[BANK0 ] unsigned short 
  1480 ;; Auto vars:     Size  Location     Type
  1481 ;;		None
  1482 ;; Return value:  Size  Location     Type
  1483 ;;                  2   48[BANK0 ] unsigned short 
  1484 ;; Registers used:
  1485 ;;		wreg, status,2, status,0, pclath, cstack
  1486 ;; Tracked objects:
  1487 ;;		On entry : 0/0
  1488 ;;		On exit  : 0/0
  1489 ;;		Unchanged: 0/0
  1490 ;; Data sizes:     COMMON   BANK0   BANK1   BANK2   BANK3   BANK4   BANK5
  1491 ;;      Params:         0       4       0       0       0       0       0
  1492 ;;      Locals:         0       0       0       0       0       0       0
  1493 ;;      Temps:          0       4       0       0       0       0       0
  1494 ;;      Totals:         0       8       0       0       0       0       0
  1495 ;;Total ram usage:        8 bytes
  1496 ;; Hardware stack levels used: 1
  1497 ;; Hardware stack levels required when called: 3
  1498 ;; This function calls:
  1499 ;;		___flmul
  1500 ;;		___fltol
  1501 ;;		___lwdiv
  1502 ;;		___xxtofl
  1503 ;; This function is called by:
  1504 ;;		_main
  1505 ;; This function uses a non-reentrant model
  1506 ;;
  1507                           
  1508     061C                     _map_value_to_pwm_resolution:	
  1509                           ;psect for function _map_value_to_pwm_resolution
  1510                           
  1511     061C                     l2604:	
  1512                           ;incstack = 0
  1513                           ; Regs used in _map_value_to_pwm_resolution: [wreg+status,2+status,0+pclath+cstack]
  1514                           
  1515                           
  1516                           ;main.c: 115: uint16_t map_value_to_pwm_resolution(uint16_t x,uint16_t max_value );main.
      +                          c: 116: {;main.c: 117:   return (uint16_t)((x) * (float)(255 / max_value)) ;
  1517     061C  0020               	movlb	0	; select bank0
  1518     061D  0850               	movf	map_value_to_pwm_resolution@x,w
  1519     061E  00A0               	movwf	___xxtofl@val
  1520     061F  0851               	movf	map_value_to_pwm_resolution@x+1,w
  1521     0620  00A1               	movwf	___xxtofl@val+1
  1522     0621  01A2               	clrf	___xxtofl@val+2
  1523     0622  01A3               	clrf	___xxtofl@val+3
  1524     0623  3000               	movlw	0
  1525     0624  3182  22B2  3186   	fcall	___xxtofl
  1526     0627  0020               	movlb	0	; select bank0
  1527     0628  0823               	movf	?___xxtofl+3,w
  1528     0629  00B5               	movwf	___flmul@a+3
  1529     062A  0822               	movf	?___xxtofl+2,w
  1530     062B  00B4               	movwf	___flmul@a+2
  1531     062C  0821               	movf	?___xxtofl+1,w
  1532     062D  00B3               	movwf	___flmul@a+1
  1533     062E  0820               	movf	?___xxtofl,w
  1534     062F  00B2               	movwf	___flmul@a
  1535     0630  30FF               	movlw	255
  1536     0631  00F3               	movwf	___lwdiv@dividend
  1537     0632  3000               	movlw	0
  1538     0633  00F4               	movwf	___lwdiv@dividend+1
  1539     0634  0853               	movf	map_value_to_pwm_resolution@max_value+1,w
  1540     0635  00F2               	movwf	___lwdiv@divisor+1
  1541     0636  0852               	movf	map_value_to_pwm_resolution@max_value,w
  1542     0637  00F1               	movwf	___lwdiv@divisor
  1543     0638  3186  26B6  3186   	fcall	___lwdiv
  1544     063B  0871               	movf	?___lwdiv,w
  1545     063C  0020               	movlb	0	; select bank0
  1546     063D  00D4               	movwf	??_map_value_to_pwm_resolution
  1547     063E  0872               	movf	?___lwdiv+1,w
  1548     063F  00D5               	movwf	??_map_value_to_pwm_resolution+1
  1549     0640  01D6               	clrf	??_map_value_to_pwm_resolution+2
  1550     0641  01D7               	clrf	??_map_value_to_pwm_resolution+3
  1551     0642  0857               	movf	??_map_value_to_pwm_resolution+3,w
  1552     0643  00A3               	movwf	___xxtofl@val+3
  1553     0644  0856               	movf	??_map_value_to_pwm_resolution+2,w
  1554     0645  00A2               	movwf	___xxtofl@val+2
  1555     0646  0855               	movf	??_map_value_to_pwm_resolution+1,w
  1556     0647  00A1               	movwf	___xxtofl@val+1
  1557     0648  0854               	movf	??_map_value_to_pwm_resolution,w
  1558     0649  00A0               	movwf	___xxtofl@val
  1559     064A  3000               	movlw	0
  1560     064B  3182  22B2  3186   	fcall	___xxtofl
  1561     064E  0020               	movlb	0	; select bank0
  1562     064F  0823               	movf	?___xxtofl+3,w
  1563     0650  00B1               	movwf	___flmul@b+3
  1564     0651  0822               	movf	?___xxtofl+2,w
  1565     0652  00B0               	movwf	___flmul@b+2
  1566     0653  0821               	movf	?___xxtofl+1,w
  1567     0654  00AF               	movwf	___flmul@b+1
  1568     0655  0820               	movf	?___xxtofl,w
  1569     0656  00AE               	movwf	___flmul@b
  1570     0657  3180  2077  3186   	fcall	___flmul
  1571     065A  0020               	movlb	0	; select bank0
  1572     065B  0831               	movf	?___flmul+3,w
  1573     065C  00CB               	movwf	___fltol@f1+3
  1574     065D  0830               	movf	?___flmul+2,w
  1575     065E  00CA               	movwf	___fltol@f1+2
  1576     065F  082F               	movf	?___flmul+1,w
  1577     0660  00C9               	movwf	___fltol@f1+1
  1578     0661  082E               	movf	?___flmul,w
  1579     0662  00C8               	movwf	___fltol@f1
  1580     0663  3185  2558  3186   	fcall	___fltol
  1581     0666  0020               	movlb	0	; select bank0
  1582     0667  0849               	movf	?___fltol+1,w
  1583     0668  00D1               	movwf	?_map_value_to_pwm_resolution+1
  1584     0669  0848               	movf	?___fltol,w
  1585     066A  00D0               	movwf	?_map_value_to_pwm_resolution
  1586     066B                     l88:
  1587     066B  0008               	return
  1588     066C                     __end_of_map_value_to_pwm_resolution:
  1589                           
  1590                           	psect	text2
  1591     02B2                     __ptext2:	
  1592 ;; *************** function ___xxtofl *****************
  1593 ;; Defined at:
  1594 ;;		line 10 in file "/Applications/microchip/xc8/v2.46/pic/sources/c99/common/xxtofl.c"
  1595 ;; Parameters:    Size  Location     Type
  1596 ;;  sign            1    wreg     unsigned char 
  1597 ;;  val             4    0[BANK0 ] long 
  1598 ;; Auto vars:     Size  Location     Type
  1599 ;;  sign            1    8[BANK0 ] unsigned char 
  1600 ;;  arg             4   10[BANK0 ] unsigned long 
  1601 ;;  exp             1    9[BANK0 ] unsigned char 
  1602 ;; Return value:  Size  Location     Type
  1603 ;;                  4    0[BANK0 ] unsigned char 
  1604 ;; Registers used:
  1605 ;;		wreg, status,2, status,0
  1606 ;; Tracked objects:
  1607 ;;		On entry : 0/0
  1608 ;;		On exit  : 0/0
  1609 ;;		Unchanged: 0/0
  1610 ;; Data sizes:     COMMON   BANK0   BANK1   BANK2   BANK3   BANK4   BANK5
  1611 ;;      Params:         0       4       0       0       0       0       0
  1612 ;;      Locals:         0       6       0       0       0       0       0
  1613 ;;      Temps:          0       4       0       0       0       0       0
  1614 ;;      Totals:         0      14       0       0       0       0       0
  1615 ;;Total ram usage:       14 bytes
  1616 ;; Hardware stack levels used: 1
  1617 ;; Hardware stack levels required when called: 1
  1618 ;; This function calls:
  1619 ;;		Nothing
  1620 ;; This function is called by:
  1621 ;;		_map_value_to_pwm_resolution
  1622 ;; This function uses a non-reentrant model
  1623 ;;
  1624                           
  1625     02B2                     ___xxtofl:	
  1626                           ;psect for function ___xxtofl
  1627                           
  1628                           
  1629                           ;incstack = 0
  1630                           ; Regs used in ___xxtofl: [wreg+status,2+status,0]
  1631                           ;___xxtofl@sign stored from wreg
  1632     02B2  0020               	movlb	0	; select bank0
  1633     02B3  00A8               	movwf	___xxtofl@sign
  1634     02B4                     l2560:
  1635     02B4  0828               	movf	___xxtofl@sign,w
  1636     02B5  1903               	btfsc	3,2
  1637     02B6  2AB8               	goto	u2931
  1638     02B7  2AB9               	goto	u2930
  1639     02B8                     u2931:
  1640     02B8  2ACD               	goto	l2566
  1641     02B9                     u2930:
  1642     02B9                     l2562:
  1643     02B9  1FA3               	btfss	___xxtofl@val+3,7
  1644     02BA  2ABC               	goto	u2941
  1645     02BB  2ABD               	goto	u2940
  1646     02BC                     u2941:
  1647     02BC  2ACD               	goto	l2566
  1648     02BD                     u2940:
  1649     02BD                     l2564:
  1650     02BD  0920               	comf	___xxtofl@val,w
  1651     02BE  00AA               	movwf	___xxtofl@arg
  1652     02BF  0921               	comf	___xxtofl@val+1,w
  1653     02C0  00AB               	movwf	___xxtofl@arg+1
  1654     02C1  0922               	comf	___xxtofl@val+2,w
  1655     02C2  00AC               	movwf	___xxtofl@arg+2
  1656     02C3  0923               	comf	___xxtofl@val+3,w
  1657     02C4  00AD               	movwf	___xxtofl@arg+3
  1658     02C5  0AAA               	incf	___xxtofl@arg,f
  1659     02C6  1903               	skipnz
  1660     02C7  0AAB               	incf	___xxtofl@arg+1,f
  1661     02C8  1903               	skipnz
  1662     02C9  0AAC               	incf	___xxtofl@arg+2,f
  1663     02CA  1903               	skipnz
  1664     02CB  0AAD               	incf	___xxtofl@arg+3,f
  1665     02CC  2AD5               	goto	l837
  1666     02CD                     l2566:
  1667     02CD  0823               	movf	___xxtofl@val+3,w
  1668     02CE  00AD               	movwf	___xxtofl@arg+3
  1669     02CF  0822               	movf	___xxtofl@val+2,w
  1670     02D0  00AC               	movwf	___xxtofl@arg+2
  1671     02D1  0821               	movf	___xxtofl@val+1,w
  1672     02D2  00AB               	movwf	___xxtofl@arg+1
  1673     02D3  0820               	movf	___xxtofl@val,w
  1674     02D4  00AA               	movwf	___xxtofl@arg
  1675     02D5                     l837:
  1676     02D5  0823               	movf	___xxtofl@val+3,w
  1677     02D6  0422               	iorwf	___xxtofl@val+2,w
  1678     02D7  0421               	iorwf	___xxtofl@val+1,w
  1679     02D8  0420               	iorwf	___xxtofl@val,w
  1680     02D9  1D03               	skipz
  1681     02DA  2ADC               	goto	u2951
  1682     02DB  2ADD               	goto	u2950
  1683     02DC                     u2951:
  1684     02DC  2AE6               	goto	l2572
  1685     02DD                     u2950:
  1686     02DD                     l2568:
  1687     02DD  3000               	movlw	0
  1688     02DE  00A3               	movwf	?___xxtofl+3
  1689     02DF  3000               	movlw	0
  1690     02E0  00A2               	movwf	?___xxtofl+2
  1691     02E1  3000               	movlw	0
  1692     02E2  00A1               	movwf	?___xxtofl+1
  1693     02E3  3000               	movlw	0
  1694     02E4  00A0               	movwf	?___xxtofl
  1695     02E5  2B5C               	goto	l839
  1696     02E6                     l2572:
  1697     02E6  3096               	movlw	150
  1698     02E7  00A9               	movwf	___xxtofl@exp
  1699     02E8  2AF4               	goto	l2576
  1700     02E9                     l2574:
  1701     02E9  3001               	movlw	1
  1702     02EA  00A4               	movwf	??___xxtofl
  1703     02EB  0824               	movf	??___xxtofl,w
  1704     02EC  07A9               	addwf	___xxtofl@exp,f
  1705     02ED  3001               	movlw	1
  1706     02EE                     u2965:
  1707     02EE  36AD               	lsrf	___xxtofl@arg+3,f
  1708     02EF  0CAC               	rrf	___xxtofl@arg+2,f
  1709     02F0  0CAB               	rrf	___xxtofl@arg+1,f
  1710     02F1  0CAA               	rrf	___xxtofl@arg,f
  1711     02F2  0B89               	decfsz	9,f
  1712     02F3  2AEE               	goto	u2965
  1713     02F4                     l2576:
  1714     02F4  30FE               	movlw	254
  1715     02F5  052D               	andwf	___xxtofl@arg+3,w
  1716     02F6  1D03               	btfss	3,2
  1717     02F7  2AF9               	goto	u2971
  1718     02F8  2AFA               	goto	u2970
  1719     02F9                     u2971:
  1720     02F9  2AE9               	goto	l2574
  1721     02FA                     u2970:
  1722     02FA  2B0E               	goto	l843
  1723     02FB                     l2578:
  1724     02FB  3001               	movlw	1
  1725     02FC  00A4               	movwf	??___xxtofl
  1726     02FD  0824               	movf	??___xxtofl,w
  1727     02FE  07A9               	addwf	___xxtofl@exp,f
  1728     02FF                     l2580:
  1729     02FF  3001               	movlw	1
  1730     0300  07AA               	addwf	___xxtofl@arg,f
  1731     0301  3000               	movlw	0
  1732     0302  3DAB               	addwfc	___xxtofl@arg+1,f
  1733     0303  3000               	movlw	0
  1734     0304  3DAC               	addwfc	___xxtofl@arg+2,f
  1735     0305  3000               	movlw	0
  1736     0306  3DAD               	addwfc	___xxtofl@arg+3,f
  1737     0307                     l2582:
  1738     0307  3001               	movlw	1
  1739     0308                     u2985:
  1740     0308  36AD               	lsrf	___xxtofl@arg+3,f
  1741     0309  0CAC               	rrf	___xxtofl@arg+2,f
  1742     030A  0CAB               	rrf	___xxtofl@arg+1,f
  1743     030B  0CAA               	rrf	___xxtofl@arg,f
  1744     030C  0B89               	decfsz	9,f
  1745     030D  2B08               	goto	u2985
  1746     030E                     l843:
  1747     030E  30FF               	movlw	255
  1748     030F  052D               	andwf	___xxtofl@arg+3,w
  1749     0310  1D03               	btfss	3,2
  1750     0311  2B13               	goto	u2991
  1751     0312  2B14               	goto	u2990
  1752     0313                     u2991:
  1753     0313  2AFB               	goto	l2578
  1754     0314                     u2990:
  1755     0314  2B1E               	goto	l2586
  1756     0315                     l2584:
  1757     0315  3001               	movlw	1
  1758     0316  02A9               	subwf	___xxtofl@exp,f
  1759     0317  3001               	movlw	1
  1760     0318                     u3005:
  1761     0318  35AA               	lslf	___xxtofl@arg,f
  1762     0319  0DAB               	rlf	___xxtofl@arg+1,f
  1763     031A  0DAC               	rlf	___xxtofl@arg+2,f
  1764     031B  0DAD               	rlf	___xxtofl@arg+3,f
  1765     031C  0B89               	decfsz	9,f
  1766     031D  2B18               	goto	u3005
  1767     031E                     l2586:
  1768     031E  1BAC               	btfsc	___xxtofl@arg+2,7
  1769     031F  2B21               	goto	u3011
  1770     0320  2B22               	goto	u3010
  1771     0321                     u3011:
  1772     0321  2B28               	goto	l850
  1773     0322                     u3010:
  1774     0322                     l2588:
  1775     0322  3002               	movlw	2
  1776     0323  0229               	subwf	___xxtofl@exp,w
  1777     0324  1803               	skipnc
  1778     0325  2B27               	goto	u3021
  1779     0326  2B28               	goto	u3020
  1780     0327                     u3021:
  1781     0327  2B15               	goto	l2584
  1782     0328                     u3020:
  1783     0328                     l850:
  1784     0328  1829               	btfsc	___xxtofl@exp,0
  1785     0329  2B2B               	goto	u3031
  1786     032A  2B2C               	goto	u3030
  1787     032B                     u3031:
  1788     032B  2B34               	goto	l851
  1789     032C                     u3030:
  1790     032C                     l2590:
  1791     032C  30FF               	movlw	255
  1792     032D  05AA               	andwf	___xxtofl@arg,f
  1793     032E  30FF               	movlw	255
  1794     032F  05AB               	andwf	___xxtofl@arg+1,f
  1795     0330  307F               	movlw	127
  1796     0331  05AC               	andwf	___xxtofl@arg+2,f
  1797     0332  30FF               	movlw	255
  1798     0333  05AD               	andwf	___xxtofl@arg+3,f
  1799     0334                     l851:
  1800     0334  1003               	clrc
  1801     0335  0CA9               	rrf	___xxtofl@exp,f
  1802     0336                     l2592:
  1803     0336  0829               	movf	___xxtofl@exp,w
  1804     0337  00A4               	movwf	??___xxtofl
  1805     0338  01A5               	clrf	??___xxtofl+1
  1806     0339  01A6               	clrf	??___xxtofl+2
  1807     033A  01A7               	clrf	??___xxtofl+3
  1808     033B  3018               	movlw	24
  1809     033C                     u3045:
  1810     033C  35A4               	lslf	??___xxtofl,f
  1811     033D  0DA5               	rlf	??___xxtofl+1,f
  1812     033E  0DA6               	rlf	??___xxtofl+2,f
  1813     033F  0DA7               	rlf	??___xxtofl+3,f
  1814     0340                     u3040:
  1815     0340  0B89               	decfsz	9,f
  1816     0341  2B3C               	goto	u3045
  1817     0342  0824               	movf	??___xxtofl,w
  1818     0343  04AA               	iorwf	___xxtofl@arg,f
  1819     0344  0825               	movf	??___xxtofl+1,w
  1820     0345  04AB               	iorwf	___xxtofl@arg+1,f
  1821     0346  0826               	movf	??___xxtofl+2,w
  1822     0347  04AC               	iorwf	___xxtofl@arg+2,f
  1823     0348  0827               	movf	??___xxtofl+3,w
  1824     0349  04AD               	iorwf	___xxtofl@arg+3,f
  1825     034A                     l2594:
  1826     034A  0828               	movf	___xxtofl@sign,w
  1827     034B  1903               	btfsc	3,2
  1828     034C  2B4E               	goto	u3051
  1829     034D  2B4F               	goto	u3050
  1830     034E                     u3051:
  1831     034E  2B54               	goto	l2600
  1832     034F                     u3050:
  1833     034F                     l2596:
  1834     034F  1FA3               	btfss	___xxtofl@val+3,7
  1835     0350  2B52               	goto	u3061
  1836     0351  2B53               	goto	u3060
  1837     0352                     u3061:
  1838     0352  2B54               	goto	l2600
  1839     0353                     u3060:
  1840     0353                     l2598:
  1841     0353  17AD               	bsf	___xxtofl@arg+3,7
  1842     0354                     l2600:
  1843     0354  082D               	movf	___xxtofl@arg+3,w
  1844     0355  00A3               	movwf	?___xxtofl+3
  1845     0356  082C               	movf	___xxtofl@arg+2,w
  1846     0357  00A2               	movwf	?___xxtofl+2
  1847     0358  082B               	movf	___xxtofl@arg+1,w
  1848     0359  00A1               	movwf	?___xxtofl+1
  1849     035A  082A               	movf	___xxtofl@arg,w
  1850     035B  00A0               	movwf	?___xxtofl
  1851     035C                     l839:
  1852     035C  0008               	return
  1853     035D                     __end_of___xxtofl:
  1854                           
  1855                           	psect	text3
  1856     0558                     __ptext3:	
  1857 ;; *************** function ___fltol *****************
  1858 ;; Defined at:
  1859 ;;		line 43 in file "/Applications/microchip/xc8/v2.46/pic/sources/c99/common/fltol.c"
  1860 ;; Parameters:    Size  Location     Type
  1861 ;;  f1              4   40[BANK0 ] unsigned char 
  1862 ;; Auto vars:     Size  Location     Type
  1863 ;;  exp1            1   11[COMMON] unsigned char 
  1864 ;;  sign1           1   10[COMMON] unsigned char 
  1865 ;; Return value:  Size  Location     Type
  1866 ;;                  4   40[BANK0 ] long 
  1867 ;; Registers used:
  1868 ;;		wreg, status,2, status,0
  1869 ;; Tracked objects:
  1870 ;;		On entry : 0/0
  1871 ;;		On exit  : 0/0
  1872 ;;		Unchanged: 0/0
  1873 ;; Data sizes:     COMMON   BANK0   BANK1   BANK2   BANK3   BANK4   BANK5
  1874 ;;      Params:         0       4       0       0       0       0       0
  1875 ;;      Locals:         2       0       0       0       0       0       0
  1876 ;;      Temps:          0       4       0       0       0       0       0
  1877 ;;      Totals:         2       8       0       0       0       0       0
  1878 ;;Total ram usage:       10 bytes
  1879 ;; Hardware stack levels used: 1
  1880 ;; Hardware stack levels required when called: 1
  1881 ;; This function calls:
  1882 ;;		Nothing
  1883 ;; This function is called by:
  1884 ;;		_map_value_to_pwm_resolution
  1885 ;; This function uses a non-reentrant model
  1886 ;;
  1887                           
  1888     0558                     ___fltol:	
  1889                           ;psect for function ___fltol
  1890                           
  1891     0558                     l2524:	
  1892                           ;incstack = 0
  1893                           ; Regs used in ___fltol: [wreg+status,2+status,0]
  1894                           
  1895     0558  1003               	clrc
  1896     0559  0020               	movlb	0	; select bank0
  1897     055A  0D4A               	rlf	___fltol@f1+2,w
  1898     055B  0D4B               	rlf	___fltol@f1+3,w
  1899     055C  00FB               	movwf	___fltol@exp1
  1900     055D  087B               	movf	___fltol@exp1,w
  1901     055E  1D03               	btfss	3,2
  1902     055F  2D61               	goto	u2831
  1903     0560  2D62               	goto	u2830
  1904     0561                     u2831:
  1905     0561  2D6B               	goto	l2530
  1906     0562                     u2830:
  1907     0562                     l2526:
  1908     0562  3000               	movlw	0
  1909     0563  00CB               	movwf	?___fltol+3
  1910     0564  3000               	movlw	0
  1911     0565  00CA               	movwf	?___fltol+2
  1912     0566  3000               	movlw	0
  1913     0567  00C9               	movwf	?___fltol+1
  1914     0568  3000               	movlw	0
  1915     0569  00C8               	movwf	?___fltol
  1916     056A  2DC8               	goto	l590
  1917     056B                     l2530:
  1918     056B  0848               	movf	___fltol@f1,w
  1919     056C  00CC               	movwf	??___fltol
  1920     056D  0849               	movf	___fltol@f1+1,w
  1921     056E  00CD               	movwf	??___fltol+1
  1922     056F  084A               	movf	___fltol@f1+2,w
  1923     0570  00CE               	movwf	??___fltol+2
  1924     0571  084B               	movf	___fltol@f1+3,w
  1925     0572  00CF               	movwf	??___fltol+3
  1926     0573  301F               	movlw	31
  1927     0574                     u2845:
  1928     0574  36CF               	lsrf	??___fltol+3,f
  1929     0575  0CCE               	rrf	??___fltol+2,f
  1930     0576  0CCD               	rrf	??___fltol+1,f
  1931     0577  0CCC               	rrf	??___fltol,f
  1932     0578                     u2840:
  1933     0578  0B89               	decfsz	9,f
  1934     0579  2D74               	goto	u2845
  1935     057A  084C               	movf	??___fltol,w
  1936     057B  00FA               	movwf	___fltol@sign1
  1937     057C                     l2532:
  1938     057C  17CA               	bsf	___fltol@f1+2,7
  1939     057D                     l2534:
  1940     057D  30FF               	movlw	255
  1941     057E  05C8               	andwf	___fltol@f1,f
  1942     057F  30FF               	movlw	255
  1943     0580  05C9               	andwf	___fltol@f1+1,f
  1944     0581  30FF               	movlw	255
  1945     0582  05CA               	andwf	___fltol@f1+2,f
  1946     0583  3000               	movlw	0
  1947     0584  05CB               	andwf	___fltol@f1+3,f
  1948     0585                     l2536:
  1949     0585  3096               	movlw	150
  1950     0586  02FB               	subwf	___fltol@exp1,f
  1951     0587                     l2538:
  1952     0587  1FFB               	btfss	___fltol@exp1,7
  1953     0588  2D8A               	goto	u2851
  1954     0589  2D8B               	goto	u2850
  1955     058A                     u2851:
  1956     058A  2DA3               	goto	l2548
  1957     058B                     u2850:
  1958     058B                     l2540:
  1959     058B  087B               	movf	___fltol@exp1,w
  1960     058C  3A80               	xorlw	128
  1961     058D  3E97               	addlw	151
  1962     058E  1803               	skipnc
  1963     058F  2D91               	goto	u2861
  1964     0590  2D92               	goto	u2860
  1965     0591                     u2861:
  1966     0591  2D93               	goto	l2546
  1967     0592                     u2860:
  1968     0592  2D62               	goto	l2526
  1969     0593                     l2546:
  1970     0593  3001               	movlw	1
  1971     0594                     u2875:
  1972     0594  36CB               	lsrf	___fltol@f1+3,f
  1973     0595  0CCA               	rrf	___fltol@f1+2,f
  1974     0596  0CC9               	rrf	___fltol@f1+1,f
  1975     0597  0CC8               	rrf	___fltol@f1,f
  1976     0598  0B89               	decfsz	9,f
  1977     0599  2D94               	goto	u2875
  1978     059A  3001               	movlw	1
  1979     059B  00CC               	movwf	??___fltol
  1980     059C  084C               	movf	??___fltol,w
  1981     059D  07FB               	addwf	___fltol@exp1,f
  1982     059E  1D03               	btfss	3,2
  1983     059F  2DA1               	goto	u2881
  1984     05A0  2DA2               	goto	u2880
  1985     05A1                     u2881:
  1986     05A1  2D93               	goto	l2546
  1987     05A2                     u2880:
  1988     05A2  2DB8               	goto	l2556
  1989     05A3                     l2548:
  1990     05A3  3020               	movlw	32
  1991     05A4  027B               	subwf	___fltol@exp1,w
  1992     05A5  1C03               	skipc
  1993     05A6  2DA8               	goto	u2891
  1994     05A7  2DA9               	goto	u2890
  1995     05A8                     u2891:
  1996     05A8  2DB3               	goto	l597
  1997     05A9                     u2890:
  1998     05A9  2D62               	goto	l2526
  1999     05AA                     l2554:
  2000     05AA  3001               	movlw	1
  2001     05AB                     u2905:
  2002     05AB  35C8               	lslf	___fltol@f1,f
  2003     05AC  0DC9               	rlf	___fltol@f1+1,f
  2004     05AD  0DCA               	rlf	___fltol@f1+2,f
  2005     05AE  0DCB               	rlf	___fltol@f1+3,f
  2006     05AF  0B89               	decfsz	9,f
  2007     05B0  2DAB               	goto	u2905
  2008     05B1  3001               	movlw	1
  2009     05B2  02FB               	subwf	___fltol@exp1,f
  2010     05B3                     l597:
  2011     05B3  087B               	movf	___fltol@exp1,w
  2012     05B4  1D03               	btfss	3,2
  2013     05B5  2DB7               	goto	u2911
  2014     05B6  2DB8               	goto	u2910
  2015     05B7                     u2911:
  2016     05B7  2DAA               	goto	l2554
  2017     05B8                     u2910:
  2018     05B8                     l2556:
  2019     05B8  087A               	movf	___fltol@sign1,w
  2020     05B9  1903               	btfsc	3,2
  2021     05BA  2DBC               	goto	u2921
  2022     05BB  2DBD               	goto	u2920
  2023     05BC                     u2921:
  2024     05BC  2DC8               	goto	l600
  2025     05BD                     u2920:
  2026     05BD                     l2558:
  2027     05BD  09C8               	comf	___fltol@f1,f
  2028     05BE  09C9               	comf	___fltol@f1+1,f
  2029     05BF  09CA               	comf	___fltol@f1+2,f
  2030     05C0  09CB               	comf	___fltol@f1+3,f
  2031     05C1  0AC8               	incf	___fltol@f1,f
  2032     05C2  1903               	skipnz
  2033     05C3  0AC9               	incf	___fltol@f1+1,f
  2034     05C4  1903               	skipnz
  2035     05C5  0ACA               	incf	___fltol@f1+2,f
  2036     05C6  1903               	skipnz
  2037     05C7  0ACB               	incf	___fltol@f1+3,f
  2038     05C8                     l600:
  2039     05C8                     l590:
  2040     05C8  0008               	return
  2041     05C9                     __end_of___fltol:
  2042                           
  2043                           	psect	text4
  2044     0077                     __ptext4:	
  2045 ;; *************** function ___flmul *****************
  2046 ;; Defined at:
  2047 ;;		line 8 in file "/Applications/microchip/xc8/v2.46/pic/sources/c99/common/sprcmul.c"
  2048 ;; Parameters:    Size  Location     Type
  2049 ;;  b               4   14[BANK0 ] long 
  2050 ;;  a               4   18[BANK0 ] long 
  2051 ;; Auto vars:     Size  Location     Type
  2052 ;;  prod            4   34[BANK0 ] struct .
  2053 ;;  grs             4   28[BANK0 ] unsigned long 
  2054 ;;  temp            2   38[BANK0 ] struct .
  2055 ;;  bexp            1   33[BANK0 ] unsigned char 
  2056 ;;  aexp            1   32[BANK0 ] unsigned char 
  2057 ;;  sign            1   27[BANK0 ] unsigned char 
  2058 ;; Return value:  Size  Location     Type
  2059 ;;                  4   14[BANK0 ] unsigned char 
  2060 ;; Registers used:
  2061 ;;		wreg, status,2, status,0, pclath, cstack
  2062 ;; Tracked objects:
  2063 ;;		On entry : 0/0
  2064 ;;		On exit  : 0/0
  2065 ;;		Unchanged: 0/0
  2066 ;; Data sizes:     COMMON   BANK0   BANK1   BANK2   BANK3   BANK4   BANK5
  2067 ;;      Params:         0       8       0       0       0       0       0
  2068 ;;      Locals:         0      13       0       0       0       0       0
  2069 ;;      Temps:          0       5       0       0       0       0       0
  2070 ;;      Totals:         0      26       0       0       0       0       0
  2071 ;;Total ram usage:       26 bytes
  2072 ;; Hardware stack levels used: 1
  2073 ;; Hardware stack levels required when called: 2
  2074 ;; This function calls:
  2075 ;;		__Umul8_16
  2076 ;; This function is called by:
  2077 ;;		_map_value_to_pwm_resolution
  2078 ;; This function uses a non-reentrant model
  2079 ;;
  2080                           
  2081     0077                     ___flmul:	
  2082                           ;psect for function ___flmul
  2083                           
  2084     0077                     l1894:	
  2085                           ;incstack = 0
  2086                           ; Regs used in ___flmul: [wreg+status,2+status,0+pclath+cstack]
  2087                           
  2088     0077  0020               	movlb	0	; select bank0
  2089     0078  0831               	movf	___flmul@b+3,w
  2090     0079  3980               	andlw	128
  2091     007A  00BB               	movwf	___flmul@sign
  2092     007B                     l1896:
  2093     007B  3531               	lslf	___flmul@b+3,w
  2094     007C  00C1               	movwf	___flmul@bexp
  2095     007D                     l1898:
  2096     007D  1FB0               	btfss	___flmul@b+2,7
  2097     007E  2880               	goto	u1801
  2098     007F  2881               	goto	u1800
  2099     0080                     u1801:
  2100     0080  2882               	goto	l1902
  2101     0081                     u1800:
  2102     0081                     l1900:
  2103     0081  1441               	bsf	___flmul@bexp,0
  2104     0082                     l1902:
  2105     0082  0841               	movf	___flmul@bexp,w
  2106     0083  1903               	btfsc	3,2
  2107     0084  2886               	goto	u1811
  2108     0085  2887               	goto	u1810
  2109     0086                     u1811:
  2110     0086  2896               	goto	l1910
  2111     0087                     u1810:
  2112     0087                     l1904:
  2113     0087  0A41               	incf	___flmul@bexp,w
  2114     0088  1D03               	btfss	3,2
  2115     0089  288B               	goto	u1821
  2116     008A  288C               	goto	u1820
  2117     008B                     u1821:
  2118     008B  2894               	goto	l1908
  2119     008C                     u1820:
  2120     008C                     l1906:
  2121     008C  3000               	movlw	0
  2122     008D  00B1               	movwf	___flmul@b+3
  2123     008E  3000               	movlw	0
  2124     008F  00B0               	movwf	___flmul@b+2
  2125     0090  3000               	movlw	0
  2126     0091  00AF               	movwf	___flmul@b+1
  2127     0092  3000               	movlw	0
  2128     0093  00AE               	movwf	___flmul@b
  2129     0094                     l1908:
  2130     0094  17B0               	bsf	___flmul@b+2,7
  2131     0095  289E               	goto	l1912
  2132     0096                     l1910:
  2133     0096  3000               	movlw	0
  2134     0097  00B1               	movwf	___flmul@b+3
  2135     0098  3000               	movlw	0
  2136     0099  00B0               	movwf	___flmul@b+2
  2137     009A  3000               	movlw	0
  2138     009B  00AF               	movwf	___flmul@b+1
  2139     009C  3000               	movlw	0
  2140     009D  00AE               	movwf	___flmul@b
  2141     009E                     l1912:
  2142     009E  0835               	movf	___flmul@a+3,w
  2143     009F  3980               	andlw	128
  2144     00A0  00B6               	movwf	??___flmul
  2145     00A1  0836               	movf	??___flmul,w
  2146     00A2  06BB               	xorwf	___flmul@sign,f
  2147     00A3                     l1914:
  2148     00A3  3535               	lslf	___flmul@a+3,w
  2149     00A4  00C0               	movwf	___flmul@aexp
  2150     00A5                     l1916:
  2151     00A5  1FB4               	btfss	___flmul@a+2,7
  2152     00A6  28A8               	goto	u1831
  2153     00A7  28A9               	goto	u1830
  2154     00A8                     u1831:
  2155     00A8  28AA               	goto	l1920
  2156     00A9                     u1830:
  2157     00A9                     l1918:
  2158     00A9  1440               	bsf	___flmul@aexp,0
  2159     00AA                     l1920:
  2160     00AA  0840               	movf	___flmul@aexp,w
  2161     00AB  1903               	btfsc	3,2
  2162     00AC  28AE               	goto	u1841
  2163     00AD  28AF               	goto	u1840
  2164     00AE                     u1841:
  2165     00AE  28BE               	goto	l1928
  2166     00AF                     u1840:
  2167     00AF                     l1922:
  2168     00AF  0A40               	incf	___flmul@aexp,w
  2169     00B0  1D03               	btfss	3,2
  2170     00B1  28B3               	goto	u1851
  2171     00B2  28B4               	goto	u1850
  2172     00B3                     u1851:
  2173     00B3  28BC               	goto	l1926
  2174     00B4                     u1850:
  2175     00B4                     l1924:
  2176     00B4  3000               	movlw	0
  2177     00B5  00B5               	movwf	___flmul@a+3
  2178     00B6  3000               	movlw	0
  2179     00B7  00B4               	movwf	___flmul@a+2
  2180     00B8  3000               	movlw	0
  2181     00B9  00B3               	movwf	___flmul@a+1
  2182     00BA  3000               	movlw	0
  2183     00BB  00B2               	movwf	___flmul@a
  2184     00BC                     l1926:
  2185     00BC  17B4               	bsf	___flmul@a+2,7
  2186     00BD  28C6               	goto	l1930
  2187     00BE                     l1928:
  2188     00BE  3000               	movlw	0
  2189     00BF  00B5               	movwf	___flmul@a+3
  2190     00C0  3000               	movlw	0
  2191     00C1  00B4               	movwf	___flmul@a+2
  2192     00C2  3000               	movlw	0
  2193     00C3  00B3               	movwf	___flmul@a+1
  2194     00C4  3000               	movlw	0
  2195     00C5  00B2               	movwf	___flmul@a
  2196     00C6                     l1930:
  2197     00C6  0840               	movf	___flmul@aexp,w
  2198     00C7  1903               	btfsc	3,2
  2199     00C8  28CA               	goto	u1861
  2200     00C9  28CB               	goto	u1860
  2201     00CA                     u1861:
  2202     00CA  28D0               	goto	l1934
  2203     00CB                     u1860:
  2204     00CB                     l1932:
  2205     00CB  0841               	movf	___flmul@bexp,w
  2206     00CC  1D03               	btfss	3,2
  2207     00CD  28CF               	goto	u1871
  2208     00CE  28D0               	goto	u1870
  2209     00CF                     u1871:
  2210     00CF  28D9               	goto	l1938
  2211     00D0                     u1870:
  2212     00D0                     l1934:
  2213     00D0  3000               	movlw	0
  2214     00D1  00B1               	movwf	?___flmul+3
  2215     00D2  3000               	movlw	0
  2216     00D3  00B0               	movwf	?___flmul+2
  2217     00D4  3000               	movlw	0
  2218     00D5  00AF               	movwf	?___flmul+1
  2219     00D6  3000               	movlw	0
  2220     00D7  00AE               	movwf	?___flmul
  2221     00D8  2AB1               	goto	l793
  2222     00D9                     l1938:
  2223     00D9  082E               	movf	___flmul@b,w
  2224     00DA  00F1               	movwf	__Umul8_16@multiplicand
  2225     00DB  0834               	movf	___flmul@a+2,w
  2226     00DC  3187  27DB  3180   	fcall	__Umul8_16
  2227     00DF  0872               	movf	?__Umul8_16+1,w
  2228     00E0  0020               	movlb	0	; select bank0
  2229     00E1  00C7               	movwf	___flmul@temp+1
  2230     00E2  0871               	movf	?__Umul8_16,w
  2231     00E3  00C6               	movwf	___flmul@temp
  2232     00E4                     l1940:
  2233     00E4  0846               	movf	___flmul@temp,w
  2234     00E5  00B6               	movwf	??___flmul
  2235     00E6  01B7               	clrf	??___flmul+1
  2236     00E7  01B8               	clrf	??___flmul+2
  2237     00E8  01B9               	clrf	??___flmul+3
  2238     00E9  0839               	movf	??___flmul+3,w
  2239     00EA  00BF               	movwf	___flmul@grs+3
  2240     00EB  0838               	movf	??___flmul+2,w
  2241     00EC  00BE               	movwf	___flmul@grs+2
  2242     00ED  0837               	movf	??___flmul+1,w
  2243     00EE  00BD               	movwf	___flmul@grs+1
  2244     00EF  0836               	movf	??___flmul,w
  2245     00F0  00BC               	movwf	___flmul@grs
  2246     00F1                     l1942:
  2247     00F1  0847               	movf	___flmul@temp+1,w
  2248     00F2  00B6               	movwf	??___flmul
  2249     00F3  01B7               	clrf	??___flmul+1
  2250     00F4  01B8               	clrf	??___flmul+2
  2251     00F5  01B9               	clrf	??___flmul+3
  2252     00F6  0839               	movf	??___flmul+3,w
  2253     00F7  00C5               	movwf	___flmul@prod+3
  2254     00F8  0838               	movf	??___flmul+2,w
  2255     00F9  00C4               	movwf	___flmul@prod+2
  2256     00FA  0837               	movf	??___flmul+1,w
  2257     00FB  00C3               	movwf	___flmul@prod+1
  2258     00FC  0836               	movf	??___flmul,w
  2259     00FD  00C2               	movwf	___flmul@prod
  2260     00FE  082F               	movf	___flmul@b+1,w
  2261     00FF  00F1               	movwf	__Umul8_16@multiplicand
  2262     0100  0833               	movf	___flmul@a+1,w
  2263     0101  3187  27DB  3180   	fcall	__Umul8_16
  2264     0104  0872               	movf	?__Umul8_16+1,w
  2265     0105  0020               	movlb	0	; select bank0
  2266     0106  00C7               	movwf	___flmul@temp+1
  2267     0107  0871               	movf	?__Umul8_16,w
  2268     0108  00C6               	movwf	___flmul@temp
  2269     0109                     l1944:
  2270     0109  0846               	movf	___flmul@temp,w
  2271     010A  00B6               	movwf	??___flmul
  2272     010B  01B7               	clrf	??___flmul+1
  2273     010C  01B8               	clrf	??___flmul+2
  2274     010D  01B9               	clrf	??___flmul+3
  2275     010E  0836               	movf	??___flmul,w
  2276     010F  07BC               	addwf	___flmul@grs,f
  2277     0110  0837               	movf	??___flmul+1,w
  2278     0111  3DBD               	addwfc	___flmul@grs+1,f
  2279     0112  0838               	movf	??___flmul+2,w
  2280     0113  3DBE               	addwfc	___flmul@grs+2,f
  2281     0114  0839               	movf	??___flmul+3,w
  2282     0115  3DBF               	addwfc	___flmul@grs+3,f
  2283     0116                     l1946:
  2284     0116  0847               	movf	___flmul@temp+1,w
  2285     0117  00B6               	movwf	??___flmul
  2286     0118  01B7               	clrf	??___flmul+1
  2287     0119  01B8               	clrf	??___flmul+2
  2288     011A  01B9               	clrf	??___flmul+3
  2289     011B  0836               	movf	??___flmul,w
  2290     011C  07C2               	addwf	___flmul@prod,f
  2291     011D  0837               	movf	??___flmul+1,w
  2292     011E  3DC3               	addwfc	___flmul@prod+1,f
  2293     011F  0838               	movf	??___flmul+2,w
  2294     0120  3DC4               	addwfc	___flmul@prod+2,f
  2295     0121  0839               	movf	??___flmul+3,w
  2296     0122  3DC5               	addwfc	___flmul@prod+3,f
  2297     0123  0830               	movf	___flmul@b+2,w
  2298     0124  00F1               	movwf	__Umul8_16@multiplicand
  2299     0125  0832               	movf	___flmul@a,w
  2300     0126  3187  27DB  3180   	fcall	__Umul8_16
  2301     0129  0872               	movf	?__Umul8_16+1,w
  2302     012A  0020               	movlb	0	; select bank0
  2303     012B  00C7               	movwf	___flmul@temp+1
  2304     012C  0871               	movf	?__Umul8_16,w
  2305     012D  00C6               	movwf	___flmul@temp
  2306     012E                     l1948:
  2307     012E  0846               	movf	___flmul@temp,w
  2308     012F  00B6               	movwf	??___flmul
  2309     0130  01B7               	clrf	??___flmul+1
  2310     0131  01B8               	clrf	??___flmul+2
  2311     0132  01B9               	clrf	??___flmul+3
  2312     0133  0836               	movf	??___flmul,w
  2313     0134  07BC               	addwf	___flmul@grs,f
  2314     0135  0837               	movf	??___flmul+1,w
  2315     0136  3DBD               	addwfc	___flmul@grs+1,f
  2316     0137  0838               	movf	??___flmul+2,w
  2317     0138  3DBE               	addwfc	___flmul@grs+2,f
  2318     0139  0839               	movf	??___flmul+3,w
  2319     013A  3DBF               	addwfc	___flmul@grs+3,f
  2320     013B                     l1950:
  2321     013B  0847               	movf	___flmul@temp+1,w
  2322     013C  00B6               	movwf	??___flmul
  2323     013D  01B7               	clrf	??___flmul+1
  2324     013E  01B8               	clrf	??___flmul+2
  2325     013F  01B9               	clrf	??___flmul+3
  2326     0140  0836               	movf	??___flmul,w
  2327     0141  07C2               	addwf	___flmul@prod,f
  2328     0142  0837               	movf	??___flmul+1,w
  2329     0143  3DC3               	addwfc	___flmul@prod+1,f
  2330     0144  0838               	movf	??___flmul+2,w
  2331     0145  3DC4               	addwfc	___flmul@prod+2,f
  2332     0146  0839               	movf	??___flmul+3,w
  2333     0147  3DC5               	addwfc	___flmul@prod+3,f
  2334     0148                     l1952:
  2335     0148  3008               	movlw	8
  2336     0149                     u1885:
  2337     0149  35BC               	lslf	___flmul@grs,f
  2338     014A  0DBD               	rlf	___flmul@grs+1,f
  2339     014B  0DBE               	rlf	___flmul@grs+2,f
  2340     014C  0DBF               	rlf	___flmul@grs+3,f
  2341     014D  0B89               	decfsz	9,f
  2342     014E  2949               	goto	u1885
  2343     014F                     l1954:
  2344     014F  082F               	movf	___flmul@b+1,w
  2345     0150  00F1               	movwf	__Umul8_16@multiplicand
  2346     0151  0832               	movf	___flmul@a,w
  2347     0152  3187  27DB  3180   	fcall	__Umul8_16
  2348     0155  0872               	movf	?__Umul8_16+1,w
  2349     0156  0020               	movlb	0	; select bank0
  2350     0157  00C7               	movwf	___flmul@temp+1
  2351     0158  0871               	movf	?__Umul8_16,w
  2352     0159  00C6               	movwf	___flmul@temp
  2353     015A                     l1956:
  2354     015A  0846               	movf	___flmul@temp,w
  2355     015B  07BC               	addwf	___flmul@grs,f
  2356     015C  0847               	movf	___flmul@temp+1,w
  2357     015D  3DBD               	addwfc	___flmul@grs+1,f
  2358     015E  3000               	movlw	0
  2359     015F  3DBE               	addwfc	___flmul@grs+2,f
  2360     0160  3DBF               	addwfc	___flmul@grs+3,f
  2361     0161                     l1958:
  2362     0161  082E               	movf	___flmul@b,w
  2363     0162  00F1               	movwf	__Umul8_16@multiplicand
  2364     0163  0833               	movf	___flmul@a+1,w
  2365     0164  3187  27DB  3180   	fcall	__Umul8_16
  2366     0167  0872               	movf	?__Umul8_16+1,w
  2367     0168  0020               	movlb	0	; select bank0
  2368     0169  00C7               	movwf	___flmul@temp+1
  2369     016A  0871               	movf	?__Umul8_16,w
  2370     016B  00C6               	movwf	___flmul@temp
  2371     016C                     l1960:
  2372     016C  0846               	movf	___flmul@temp,w
  2373     016D  07BC               	addwf	___flmul@grs,f
  2374     016E  0847               	movf	___flmul@temp+1,w
  2375     016F  3DBD               	addwfc	___flmul@grs+1,f
  2376     0170  3000               	movlw	0
  2377     0171  3DBE               	addwfc	___flmul@grs+2,f
  2378     0172  3DBF               	addwfc	___flmul@grs+3,f
  2379     0173                     l1962:
  2380     0173  3008               	movlw	8
  2381     0174                     u1895:
  2382     0174  35BC               	lslf	___flmul@grs,f
  2383     0175  0DBD               	rlf	___flmul@grs+1,f
  2384     0176  0DBE               	rlf	___flmul@grs+2,f
  2385     0177  0DBF               	rlf	___flmul@grs+3,f
  2386     0178  0B89               	decfsz	9,f
  2387     0179  2974               	goto	u1895
  2388     017A  082E               	movf	___flmul@b,w
  2389     017B  00F1               	movwf	__Umul8_16@multiplicand
  2390     017C  0832               	movf	___flmul@a,w
  2391     017D  3187  27DB  3180   	fcall	__Umul8_16
  2392     0180  0872               	movf	?__Umul8_16+1,w
  2393     0181  0020               	movlb	0	; select bank0
  2394     0182  00C7               	movwf	___flmul@temp+1
  2395     0183  0871               	movf	?__Umul8_16,w
  2396     0184  00C6               	movwf	___flmul@temp
  2397     0185                     l1964:
  2398     0185  0846               	movf	___flmul@temp,w
  2399     0186  07BC               	addwf	___flmul@grs,f
  2400     0187  0847               	movf	___flmul@temp+1,w
  2401     0188  3DBD               	addwfc	___flmul@grs+1,f
  2402     0189  3000               	movlw	0
  2403     018A  3DBE               	addwfc	___flmul@grs+2,f
  2404     018B  3DBF               	addwfc	___flmul@grs+3,f
  2405     018C                     l1966:
  2406     018C  082F               	movf	___flmul@b+1,w
  2407     018D  00F1               	movwf	__Umul8_16@multiplicand
  2408     018E  0834               	movf	___flmul@a+2,w
  2409     018F  3187  27DB  3180   	fcall	__Umul8_16
  2410     0192  0872               	movf	?__Umul8_16+1,w
  2411     0193  0020               	movlb	0	; select bank0
  2412     0194  00C7               	movwf	___flmul@temp+1
  2413     0195  0871               	movf	?__Umul8_16,w
  2414     0196  00C6               	movwf	___flmul@temp
  2415     0197  0846               	movf	___flmul@temp,w
  2416     0198  07C2               	addwf	___flmul@prod,f
  2417     0199  0847               	movf	___flmul@temp+1,w
  2418     019A  3DC3               	addwfc	___flmul@prod+1,f
  2419     019B  3000               	movlw	0
  2420     019C  3DC4               	addwfc	___flmul@prod+2,f
  2421     019D  3DC5               	addwfc	___flmul@prod+3,f
  2422     019E                     l1968:
  2423     019E  0830               	movf	___flmul@b+2,w
  2424     019F  00F1               	movwf	__Umul8_16@multiplicand
  2425     01A0  0833               	movf	___flmul@a+1,w
  2426     01A1  3187  27DB  3180   	fcall	__Umul8_16
  2427     01A4  0872               	movf	?__Umul8_16+1,w
  2428     01A5  0020               	movlb	0	; select bank0
  2429     01A6  00C7               	movwf	___flmul@temp+1
  2430     01A7  0871               	movf	?__Umul8_16,w
  2431     01A8  00C6               	movwf	___flmul@temp
  2432     01A9                     l1970:
  2433     01A9  0846               	movf	___flmul@temp,w
  2434     01AA  07C2               	addwf	___flmul@prod,f
  2435     01AB  0847               	movf	___flmul@temp+1,w
  2436     01AC  3DC3               	addwfc	___flmul@prod+1,f
  2437     01AD  3000               	movlw	0
  2438     01AE  3DC4               	addwfc	___flmul@prod+2,f
  2439     01AF  3DC5               	addwfc	___flmul@prod+3,f
  2440     01B0  0830               	movf	___flmul@b+2,w
  2441     01B1  00F1               	movwf	__Umul8_16@multiplicand
  2442     01B2  0834               	movf	___flmul@a+2,w
  2443     01B3  3187  27DB  3180   	fcall	__Umul8_16
  2444     01B6  0872               	movf	?__Umul8_16+1,w
  2445     01B7  0020               	movlb	0	; select bank0
  2446     01B8  00C7               	movwf	___flmul@temp+1
  2447     01B9  0871               	movf	?__Umul8_16,w
  2448     01BA  00C6               	movwf	___flmul@temp
  2449     01BB                     l1972:
  2450     01BB  0846               	movf	___flmul@temp,w
  2451     01BC  00B6               	movwf	??___flmul
  2452     01BD  0847               	movf	___flmul@temp+1,w
  2453     01BE  00B7               	movwf	??___flmul+1
  2454     01BF  01B8               	clrf	??___flmul+2
  2455     01C0  01B9               	clrf	??___flmul+3
  2456     01C1  3008               	movlw	8
  2457     01C2                     u1905:
  2458     01C2  35B6               	lslf	??___flmul,f
  2459     01C3  0DB7               	rlf	??___flmul+1,f
  2460     01C4  0DB8               	rlf	??___flmul+2,f
  2461     01C5  0DB9               	rlf	??___flmul+3,f
  2462     01C6                     u1900:
  2463     01C6  0B89               	decfsz	9,f
  2464     01C7  29C2               	goto	u1905
  2465     01C8  0836               	movf	??___flmul,w
  2466     01C9  07C2               	addwf	___flmul@prod,f
  2467     01CA  0837               	movf	??___flmul+1,w
  2468     01CB  3DC3               	addwfc	___flmul@prod+1,f
  2469     01CC  0838               	movf	??___flmul+2,w
  2470     01CD  3DC4               	addwfc	___flmul@prod+2,f
  2471     01CE  0839               	movf	??___flmul+3,w
  2472     01CF  3DC5               	addwfc	___flmul@prod+3,f
  2473     01D0                     l1974:
  2474     01D0  083C               	movf	___flmul@grs,w
  2475     01D1  00B6               	movwf	??___flmul
  2476     01D2  083D               	movf	___flmul@grs+1,w
  2477     01D3  00B7               	movwf	??___flmul+1
  2478     01D4  083E               	movf	___flmul@grs+2,w
  2479     01D5  00B8               	movwf	??___flmul+2
  2480     01D6  083F               	movf	___flmul@grs+3,w
  2481     01D7  00B9               	movwf	??___flmul+3
  2482     01D8  3018               	movlw	24
  2483     01D9                     u1915:
  2484     01D9  36B9               	lsrf	??___flmul+3,f
  2485     01DA  0CB8               	rrf	??___flmul+2,f
  2486     01DB  0CB7               	rrf	??___flmul+1,f
  2487     01DC  0CB6               	rrf	??___flmul,f
  2488     01DD                     u1910:
  2489     01DD  0B89               	decfsz	9,f
  2490     01DE  29D9               	goto	u1915
  2491     01DF  0836               	movf	??___flmul,w
  2492     01E0  07C2               	addwf	___flmul@prod,f
  2493     01E1  0837               	movf	??___flmul+1,w
  2494     01E2  3DC3               	addwfc	___flmul@prod+1,f
  2495     01E3  0838               	movf	??___flmul+2,w
  2496     01E4  3DC4               	addwfc	___flmul@prod+2,f
  2497     01E5  0839               	movf	??___flmul+3,w
  2498     01E6  3DC5               	addwfc	___flmul@prod+3,f
  2499     01E7                     l1976:
  2500     01E7  3008               	movlw	8
  2501     01E8                     u1925:
  2502     01E8  35BC               	lslf	___flmul@grs,f
  2503     01E9  0DBD               	rlf	___flmul@grs+1,f
  2504     01EA  0DBE               	rlf	___flmul@grs+2,f
  2505     01EB  0DBF               	rlf	___flmul@grs+3,f
  2506     01EC  0B89               	decfsz	9,f
  2507     01ED  29E8               	goto	u1925
  2508     01EE                     l1978:
  2509     01EE  0841               	movf	___flmul@bexp,w
  2510     01EF  0740               	addwf	___flmul@aexp,w
  2511     01F0  00B6               	movwf	??___flmul
  2512     01F1  01B7               	clrf	??___flmul+1
  2513     01F2  0DB7               	rlf	??___flmul+1,f
  2514     01F3  0836               	movf	??___flmul,w
  2515     01F4  3E82               	addlw	130
  2516     01F5  00C6               	movwf	___flmul@temp
  2517     01F6  30FF               	movlw	255
  2518     01F7  3D37               	addwfc	??___flmul+1,w
  2519     01F8  00C7               	movwf	___flmul@temp+1
  2520     01F9  2A11               	goto	l1990
  2521     01FA                     l1980:
  2522     01FA  3001               	movlw	1
  2523     01FB                     u1935:
  2524     01FB  35C2               	lslf	___flmul@prod,f
  2525     01FC  0DC3               	rlf	___flmul@prod+1,f
  2526     01FD  0DC4               	rlf	___flmul@prod+2,f
  2527     01FE  0DC5               	rlf	___flmul@prod+3,f
  2528     01FF  0B89               	decfsz	9,f
  2529     0200  29FB               	goto	u1935
  2530     0201                     l1982:
  2531     0201  1FBF               	btfss	___flmul@grs+3,7
  2532     0202  2A04               	goto	u1941
  2533     0203  2A05               	goto	u1940
  2534     0204                     u1941:
  2535     0204  2A06               	goto	l1986
  2536     0205                     u1940:
  2537     0205                     l1984:
  2538     0205  1442               	bsf	___flmul@prod,0
  2539     0206                     l1986:
  2540     0206  3001               	movlw	1
  2541     0207                     u1955:
  2542     0207  35BC               	lslf	___flmul@grs,f
  2543     0208  0DBD               	rlf	___flmul@grs+1,f
  2544     0209  0DBE               	rlf	___flmul@grs+2,f
  2545     020A  0DBF               	rlf	___flmul@grs+3,f
  2546     020B  0B89               	decfsz	9,f
  2547     020C  2A07               	goto	u1955
  2548     020D                     l1988:
  2549     020D  30FF               	movlw	255
  2550     020E  07C6               	addwf	___flmul@temp,f
  2551     020F  30FF               	movlw	255
  2552     0210  3DC7               	addwfc	___flmul@temp+1,f
  2553     0211                     l1990:
  2554     0211  1FC4               	btfss	___flmul@prod+2,7
  2555     0212  2A14               	goto	u1961
  2556     0213  2A15               	goto	u1960
  2557     0214                     u1961:
  2558     0214  29FA               	goto	l1980
  2559     0215                     u1960:
  2560     0215                     l1992:
  2561     0215  01C0               	clrf	___flmul@aexp
  2562     0216                     l1994:
  2563     0216  1FBF               	btfss	___flmul@grs+3,7
  2564     0217  2A19               	goto	u1971
  2565     0218  2A1A               	goto	u1970
  2566     0219                     u1971:
  2567     0219  2A36               	goto	l2002
  2568     021A                     u1970:
  2569     021A                     l1996:
  2570     021A  30FF               	movlw	255
  2571     021B  053C               	andwf	___flmul@grs,w
  2572     021C  00B6               	movwf	??___flmul
  2573     021D  30FF               	movlw	255
  2574     021E  053D               	andwf	___flmul@grs+1,w
  2575     021F  00B7               	movwf	??___flmul+1
  2576     0220  30FF               	movlw	255
  2577     0221  053E               	andwf	___flmul@grs+2,w
  2578     0222  00B8               	movwf	??___flmul+2
  2579     0223  307F               	movlw	127
  2580     0224  053F               	andwf	___flmul@grs+3,w
  2581     0225  00B9               	movwf	??___flmul+3
  2582     0226  0839               	movf	??___flmul+3,w
  2583     0227  0438               	iorwf	??___flmul+2,w
  2584     0228  0437               	iorwf	??___flmul+1,w
  2585     0229  0436               	iorwf	??___flmul,w
  2586     022A  1903               	skipnz
  2587     022B  2A2D               	goto	u1981
  2588     022C  2A2E               	goto	u1980
  2589     022D                     u1981:
  2590     022D  2A31               	goto	l799
  2591     022E                     u1980:
  2592     022E                     l1998:
  2593     022E  01C0               	clrf	___flmul@aexp
  2594     022F  0AC0               	incf	___flmul@aexp,f
  2595     0230  2A36               	goto	l2002
  2596     0231                     l799:
  2597     0231  1C42               	btfss	___flmul@prod,0
  2598     0232  2A34               	goto	u1991
  2599     0233  2A35               	goto	u1990
  2600     0234                     u1991:
  2601     0234  2A36               	goto	l2002
  2602     0235                     u1990:
  2603     0235  2A2E               	goto	l1998
  2604     0236                     l2002:
  2605     0236  0840               	movf	___flmul@aexp,w
  2606     0237  1903               	btfsc	3,2
  2607     0238  2A3A               	goto	u2001
  2608     0239  2A3B               	goto	u2000
  2609     023A                     u2001:
  2610     023A  2A63               	goto	l2012
  2611     023B                     u2000:
  2612     023B                     l2004:
  2613     023B  3001               	movlw	1
  2614     023C  07C2               	addwf	___flmul@prod,f
  2615     023D  3000               	movlw	0
  2616     023E  3DC3               	addwfc	___flmul@prod+1,f
  2617     023F  3000               	movlw	0
  2618     0240  3DC4               	addwfc	___flmul@prod+2,f
  2619     0241  3000               	movlw	0
  2620     0242  3DC5               	addwfc	___flmul@prod+3,f
  2621     0243                     l2006:
  2622     0243  1C45               	btfss	___flmul@prod+3,0
  2623     0244  2A46               	goto	u2011
  2624     0245  2A47               	goto	u2010
  2625     0246                     u2011:
  2626     0246  2A63               	goto	l2012
  2627     0247                     u2010:
  2628     0247                     l2008:
  2629     0247  0842               	movf	___flmul@prod,w
  2630     0248  00B6               	movwf	??___flmul
  2631     0249  0843               	movf	___flmul@prod+1,w
  2632     024A  00B7               	movwf	??___flmul+1
  2633     024B  0844               	movf	___flmul@prod+2,w
  2634     024C  00B8               	movwf	??___flmul+2
  2635     024D  0845               	movf	___flmul@prod+3,w
  2636     024E  00B9               	movwf	??___flmul+3
  2637     024F  3001               	movlw	1
  2638     0250  00BA               	movwf	??___flmul+4
  2639     0251                     u2025:
  2640     0251  37B9               	asrf	??___flmul+3,f
  2641     0252  0CB8               	rrf	??___flmul+2,f
  2642     0253  0CB7               	rrf	??___flmul+1,f
  2643     0254  0CB6               	rrf	??___flmul,f
  2644     0255                     u2020:
  2645     0255  0BBA               	decfsz	??___flmul+4,f
  2646     0256  2A51               	goto	u2025
  2647     0257  0839               	movf	??___flmul+3,w
  2648     0258  00C5               	movwf	___flmul@prod+3
  2649     0259  0838               	movf	??___flmul+2,w
  2650     025A  00C4               	movwf	___flmul@prod+2
  2651     025B  0837               	movf	??___flmul+1,w
  2652     025C  00C3               	movwf	___flmul@prod+1
  2653     025D  0836               	movf	??___flmul,w
  2654     025E  00C2               	movwf	___flmul@prod
  2655     025F                     l2010:
  2656     025F  3001               	movlw	1
  2657     0260  07C6               	addwf	___flmul@temp,f
  2658     0261  3000               	movlw	0
  2659     0262  3DC7               	addwfc	___flmul@temp+1,f
  2660     0263                     l2012:
  2661     0263  0847               	movf	___flmul@temp+1,w
  2662     0264  3A80               	xorlw	128
  2663     0265  00B6               	movwf	??___flmul
  2664     0266  3080               	movlw	128
  2665     0267  0236               	subwf	??___flmul,w
  2666     0268  1D03               	skipz
  2667     0269  2A6C               	goto	u2035
  2668     026A  30FF               	movlw	255
  2669     026B  0246               	subwf	___flmul@temp,w
  2670     026C                     u2035:
  2671     026C  1C03               	skipc
  2672     026D  2A6F               	goto	u2031
  2673     026E  2A70               	goto	u2030
  2674     026F                     u2031:
  2675     026F  2A7A               	goto	l2016
  2676     0270                     u2030:
  2677     0270                     l2014:
  2678     0270  307F               	movlw	127
  2679     0271  0020               	movlb	0	; select bank0
  2680     0272  00C5               	movwf	___flmul@prod+3
  2681     0273  3080               	movlw	128
  2682     0274  00C4               	movwf	___flmul@prod+2
  2683     0275  3000               	movlw	0
  2684     0276  00C3               	movwf	___flmul@prod+1
  2685     0277  3000               	movlw	0
  2686     0278  00C2               	movwf	___flmul@prod
  2687     0279  2AA5               	goto	l805
  2688     027A                     l2016:
  2689     027A  0020               	movlb	0	; select bank0
  2690     027B  0847               	movf	___flmul@temp+1,w
  2691     027C  3A80               	xorlw	128
  2692     027D  00B6               	movwf	??___flmul
  2693     027E  3080               	movlw	128
  2694     027F  0236               	subwf	??___flmul,w
  2695     0280  1D03               	skipz
  2696     0281  2A84               	goto	u2045
  2697     0282  3001               	movlw	1
  2698     0283  0246               	subwf	___flmul@temp,w
  2699     0284                     u2045:
  2700     0284  1803               	skipnc
  2701     0285  2A87               	goto	u2041
  2702     0286  2A88               	goto	u2040
  2703     0287                     u2041:
  2704     0287  2A93               	goto	l2022
  2705     0288                     u2040:
  2706     0288                     l2018:
  2707     0288  3000               	movlw	0
  2708     0289  0020               	movlb	0	; select bank0
  2709     028A  00C5               	movwf	___flmul@prod+3
  2710     028B  3000               	movlw	0
  2711     028C  00C4               	movwf	___flmul@prod+2
  2712     028D  3000               	movlw	0
  2713     028E  00C3               	movwf	___flmul@prod+1
  2714     028F  3000               	movlw	0
  2715     0290  00C2               	movwf	___flmul@prod
  2716     0291                     l2020:
  2717     0291  01BB               	clrf	___flmul@sign
  2718     0292  2AA5               	goto	l805
  2719     0293                     l2022:
  2720     0293  0020               	movlb	0	; select bank0
  2721     0294  0846               	movf	___flmul@temp,w
  2722     0295  00C1               	movwf	___flmul@bexp
  2723     0296  30FF               	movlw	255
  2724     0297  05C2               	andwf	___flmul@prod,f
  2725     0298  30FF               	movlw	255
  2726     0299  05C3               	andwf	___flmul@prod+1,f
  2727     029A  307F               	movlw	127
  2728     029B  05C4               	andwf	___flmul@prod+2,f
  2729     029C  3000               	movlw	0
  2730     029D  05C5               	andwf	___flmul@prod+3,f
  2731     029E                     l2024:
  2732     029E  1C41               	btfss	___flmul@bexp,0
  2733     029F  2AA1               	goto	u2051
  2734     02A0  2AA2               	goto	u2050
  2735     02A1                     u2051:
  2736     02A1  2AA3               	goto	l2028
  2737     02A2                     u2050:
  2738     02A2                     l2026:
  2739     02A2  17C4               	bsf	___flmul@prod+2,7
  2740     02A3                     l2028:
  2741     02A3  3641               	lsrf	___flmul@bexp,w
  2742     02A4  00C5               	movwf	___flmul@prod+3
  2743     02A5                     l805:
  2744     02A5  083B               	movf	___flmul@sign,w
  2745     02A6  00B6               	movwf	??___flmul
  2746     02A7  0836               	movf	??___flmul,w
  2747     02A8  04C5               	iorwf	___flmul@prod+3,f
  2748     02A9                     l2030:
  2749     02A9  0845               	movf	___flmul@prod+3,w
  2750     02AA  00B1               	movwf	?___flmul+3
  2751     02AB  0844               	movf	___flmul@prod+2,w
  2752     02AC  00B0               	movwf	?___flmul+2
  2753     02AD  0843               	movf	___flmul@prod+1,w
  2754     02AE  00AF               	movwf	?___flmul+1
  2755     02AF  0842               	movf	___flmul@prod,w
  2756     02B0  00AE               	movwf	?___flmul
  2757     02B1                     l793:
  2758     02B1  0008               	return
  2759     02B2                     __end_of___flmul:
  2760                           
  2761                           	psect	text5
  2762     07DB                     __ptext5:	
  2763 ;; *************** function __Umul8_16 *****************
  2764 ;; Defined at:
  2765 ;;		line 4 in file "/Applications/microchip/xc8/v2.46/pic/sources/c99/common/Umul8_16.c"
  2766 ;; Parameters:    Size  Location     Type
  2767 ;;  multiplier      1    wreg     unsigned char 
  2768 ;;  multiplicand    1    1[COMMON] unsigned char 
  2769 ;; Auto vars:     Size  Location     Type
  2770 ;;  multiplier      1    9[COMMON] unsigned char 
  2771 ;;  word_mpld       2    7[COMMON] unsigned short 
  2772 ;;  product         2    5[COMMON] unsigned short 
  2773 ;; Return value:  Size  Location     Type
  2774 ;;                  2    1[COMMON] unsigned int 
  2775 ;; Registers used:
  2776 ;;		wreg, status,2, status,0
  2777 ;; Tracked objects:
  2778 ;;		On entry : 0/0
  2779 ;;		On exit  : 0/0
  2780 ;;		Unchanged: 0/0
  2781 ;; Data sizes:     COMMON   BANK0   BANK1   BANK2   BANK3   BANK4   BANK5
  2782 ;;      Params:         2       0       0       0       0       0       0
  2783 ;;      Locals:         5       0       0       0       0       0       0
  2784 ;;      Temps:          2       0       0       0       0       0       0
  2785 ;;      Totals:         9       0       0       0       0       0       0
  2786 ;;Total ram usage:        9 bytes
  2787 ;; Hardware stack levels used: 1
  2788 ;; Hardware stack levels required when called: 1
  2789 ;; This function calls:
  2790 ;;		Nothing
  2791 ;; This function is called by:
  2792 ;;		___flmul
  2793 ;; This function uses a non-reentrant model
  2794 ;;
  2795                           
  2796     07DB                     __Umul8_16:	
  2797                           ;psect for function __Umul8_16
  2798                           
  2799                           
  2800                           ;incstack = 0
  2801                           ; Regs used in __Umul8_16: [wreg+status,2+status,0]
  2802                           ;__Umul8_16@multiplier stored from wreg
  2803     07DB  00F9               	movwf	__Umul8_16@multiplier
  2804     07DC                     l1710:
  2805     07DC  01F5               	clrf	__Umul8_16@product
  2806     07DD  01F6               	clrf	__Umul8_16@product+1
  2807     07DE                     l1712:
  2808     07DE  0871               	movf	__Umul8_16@multiplicand,w
  2809     07DF  00F3               	movwf	??__Umul8_16
  2810     07E0  01F4               	clrf	??__Umul8_16+1
  2811     07E1  0873               	movf	??__Umul8_16,w
  2812     07E2  00F7               	movwf	__Umul8_16@word_mpld
  2813     07E3  0874               	movf	??__Umul8_16+1,w
  2814     07E4  00F8               	movwf	__Umul8_16@word_mpld+1
  2815     07E5                     l1714:
  2816     07E5  1C79               	btfss	__Umul8_16@multiplier,0
  2817     07E6  2FE8               	goto	u1481
  2818     07E7  2FE9               	goto	u1480
  2819     07E8                     u1481:
  2820     07E8  2FED               	goto	l812
  2821     07E9                     u1480:
  2822     07E9                     l1716:
  2823     07E9  0877               	movf	__Umul8_16@word_mpld,w
  2824     07EA  07F5               	addwf	__Umul8_16@product,f
  2825     07EB  0878               	movf	__Umul8_16@word_mpld+1,w
  2826     07EC  3DF6               	addwfc	__Umul8_16@product+1,f
  2827     07ED                     l812:
  2828     07ED  3001               	movlw	1
  2829     07EE                     u1495:
  2830     07EE  35F7               	lslf	__Umul8_16@word_mpld,f
  2831     07EF  0DF8               	rlf	__Umul8_16@word_mpld+1,f
  2832     07F0  0B89               	decfsz	9,f
  2833     07F1  2FEE               	goto	u1495
  2834     07F2  1003               	clrc
  2835     07F3  0CF9               	rrf	__Umul8_16@multiplier,f
  2836     07F4                     l1718:
  2837     07F4  0879               	movf	__Umul8_16@multiplier,w
  2838     07F5  1D03               	btfss	3,2
  2839     07F6  2FF8               	goto	u1501
  2840     07F7  2FF9               	goto	u1500
  2841     07F8                     u1501:
  2842     07F8  2FE5               	goto	l1714
  2843     07F9                     u1500:
  2844     07F9                     l1720:
  2845     07F9  0876               	movf	__Umul8_16@product+1,w
  2846     07FA  00F2               	movwf	?__Umul8_16+1
  2847     07FB  0875               	movf	__Umul8_16@product,w
  2848     07FC  00F1               	movwf	?__Umul8_16
  2849     07FD                     l814:
  2850     07FD  0008               	return
  2851     07FE                     __end_of__Umul8_16:
  2852                           
  2853                           	psect	text6
  2854     06F2                     __ptext6:	
  2855 ;; *************** function _init *****************
  2856 ;; Defined at:
  2857 ;;		line 487 in file "main.c"
  2858 ;; Parameters:    Size  Location     Type
  2859 ;;		None
  2860 ;; Auto vars:     Size  Location     Type
  2861 ;;  counter         1   11[COMMON] unsigned char 
  2862 ;; Return value:  Size  Location     Type
  2863 ;;                  1    wreg      void 
  2864 ;; Registers used:
  2865 ;;		wreg, fsr0l, fsr0h, status,2, status,0, pclath, cstack
  2866 ;; Tracked objects:
  2867 ;;		On entry : 0/0
  2868 ;;		On exit  : 0/0
  2869 ;;		Unchanged: 0/0
  2870 ;; Data sizes:     COMMON   BANK0   BANK1   BANK2   BANK3   BANK4   BANK5
  2871 ;;      Params:         0       0       0       0       0       0       0
  2872 ;;      Locals:         1       0       0       0       0       0       0
  2873 ;;      Temps:          0       2       0       0       0       0       0
  2874 ;;      Totals:         1       2       0       0       0       0       0
  2875 ;;Total ram usage:        3 bytes
  2876 ;; Hardware stack levels used: 1
  2877 ;; Hardware stack levels required when called: 6
  2878 ;; This function calls:
  2879 ;;		_check_and_set_max
  2880 ;;		_display_digit
  2881 ;;		_initPwm
  2882 ;;		_init_EEPROM
  2883 ;;		_init_port
  2884 ;;		_init_timer
  2885 ;;		_set_factory_settings
  2886 ;; This function is called by:
  2887 ;;		_main
  2888 ;; This function uses a non-reentrant model
  2889 ;;
  2890                           
  2891     06F2                     _init:	
  2892                           ;psect for function _init
  2893                           
  2894     06F2                     l2608:	
  2895                           ;incstack = 0
  2896                           ; Regs used in _init: [wreg-fsr0h+status,2+status,0+pclath+cstack]
  2897                           
  2898                           
  2899                           ;main.c: 489:     duty_cycle = 0;
  2900     06F2  0020               	movlb	0	; select bank0
  2901     06F3  01EA               	clrf	_duty_cycle
  2902     06F4  01EB               	clrf	_duty_cycle+1
  2903                           
  2904                           ;main.c: 490:     pwm_value = 0;
  2905     06F5  01E8               	clrf	_pwm_value
  2906     06F6  01E9               	clrf	_pwm_value+1
  2907                           
  2908                           ;main.c: 491:     is_pwm_loaded = 0;
  2909     06F7  01EC               	clrf	_is_pwm_loaded
  2910     06F8                     l2610:
  2911                           
  2912                           ;main.c: 493:     init_port();
  2913     06F8  318F  2763  3186   	fcall	_init_port
  2914     06FB                     l2612:
  2915                           
  2916                           ;main.c: 495:     initPwm();
  2917     06FB  318F  2784  3186   	fcall	_initPwm
  2918     06FE                     l2614:
  2919                           
  2920                           ;main.c: 497:     init_timer();
  2921     06FE  318F  274D  3186   	fcall	_init_timer
  2922     0701                     l2616:
  2923                           
  2924                           ;main.c: 499:     check_and_set_max();
  2925     0701  3184  24E3  3186   	fcall	_check_and_set_max
  2926     0704                     l2618:
  2927                           
  2928                           ;main.c: 501:     set_factory_settings();
  2929     0704  3183  23ED  3186   	fcall	_set_factory_settings
  2930     0707                     l2620:
  2931                           
  2932                           ;main.c: 503:     init_EEPROM();
  2933     0707  3185  25C9  3186   	fcall	_init_EEPROM
  2934                           
  2935                           ;main.c: 505:     for (uint8_t counter = 0 ; counter < 5 ; counter ++)
  2936     070A  01FB               	clrf	init@counter
  2937     070B                     l2626:
  2938                           
  2939                           ;main.c: 506:     {;main.c: 507:         display_digit(max_value);
  2940     070B  0020               	movlb	0	; select bank0
  2941     070C  0867               	movf	_max_value+1,w
  2942     070D  00A5               	movwf	display_digit@value+1
  2943     070E  0866               	movf	_max_value,w
  2944     070F  00A4               	movwf	display_digit@value
  2945     0710  3184  2469  3186   	fcall	_display_digit
  2946     0713                     l2628:
  2947                           
  2948                           ;main.c: 508:         _delay((unsigned long)((1000)*(4000000/4000.0)));
  2949     0713  3006               	movlw	6
  2950     0714  0020               	movlb	0	; select bank0
  2951     0715  00B5               	movwf	??_init+1
  2952     0716  3013               	movlw	19
  2953     0717  00B4               	movwf	??_init
  2954     0718  30AD               	movlw	173
  2955     0719                     u3147:
  2956     0719  0B89               	decfsz	9,f
  2957     071A  2F19               	goto	u3147
  2958     071B  0BB4               	decfsz	??_init,f
  2959     071C  2F19               	goto	u3147
  2960     071D  0BB5               	decfsz	??_init+1,f
  2961     071E  2F19               	goto	u3147
  2962     071F  3200               	nop2
  2963     0720                     l2630:
  2964                           
  2965                           ;main.c: 509:     }
  2966     0720  3001               	movlw	1
  2967     0721  0020               	movlb	0	; select bank0
  2968     0722  00B4               	movwf	??_init
  2969     0723  0834               	movf	??_init,w
  2970     0724  07FB               	addwf	init@counter,f
  2971     0725                     l2632:
  2972     0725  3005               	movlw	5
  2973     0726  027B               	subwf	init@counter,w
  2974     0727  1C03               	skipc
  2975     0728  2F2A               	goto	u3071
  2976     0729  2F2B               	goto	u3070
  2977     072A                     u3071:
  2978     072A  2F0B               	goto	l2626
  2979     072B                     u3070:
  2980     072B                     l196:
  2981     072B  0008               	return
  2982     072C                     __end_of_init:
  2983                           
  2984                           	psect	text7
  2985     03ED                     __ptext7:	
  2986 ;; *************** function _set_factory_settings *****************
  2987 ;; Defined at:
  2988 ;;		line 421 in file "main.c"
  2989 ;; Parameters:    Size  Location     Type
  2990 ;;		None
  2991 ;; Auto vars:     Size  Location     Type
  2992 ;;  f_store_last    1    0        unsigned char 
  2993 ;;  factory_sett    1    7[COMMON] unsigned char 
  2994 ;; Return value:  Size  Location     Type
  2995 ;;                  1    wreg      void 
  2996 ;; Registers used:
  2997 ;;		wreg, fsr0l, fsr0h, status,2, status,0, pclath, cstack
  2998 ;; Tracked objects:
  2999 ;;		On entry : 0/0
  3000 ;;		On exit  : 0/0
  3001 ;;		Unchanged: 0/0
  3002 ;; Data sizes:     COMMON   BANK0   BANK1   BANK2   BANK3   BANK4   BANK5
  3003 ;;      Params:         0       0       0       0       0       0       0
  3004 ;;      Locals:         1       0       0       0       0       0       0
  3005 ;;      Temps:          2       0       0       0       0       0       0
  3006 ;;      Totals:         3       0       0       0       0       0       0
  3007 ;;Total ram usage:        3 bytes
  3008 ;; Hardware stack levels used: 1
  3009 ;; Hardware stack levels required when called: 2
  3010 ;; This function calls:
  3011 ;;		_display_FR_command
  3012 ;;		_eeprom_write
  3013 ;;		_is_dec_switch_pressed
  3014 ;;		_is_inc_switch_pressed
  3015 ;; This function is called by:
  3016 ;;		_init
  3017 ;; This function uses a non-reentrant model
  3018 ;;
  3019                           
  3020     03ED                     _set_factory_settings:	
  3021                           ;psect for function _set_factory_settings
  3022                           
  3023     03ED                     l2488:	
  3024                           ;incstack = 0
  3025                           ; Regs used in _set_factory_settings: [wreg-fsr0h+status,2+status,0+pclath+cstack]
  3026                           
  3027                           
  3028                           ;main.c: 425:     uint8_t factory_setting_mode_enabled = 0;
  3029     03ED  01F7               	clrf	set_factory_settings@factory_setting_mode_enabled
  3030     03EE                     l2490:
  3031                           
  3032                           ;main.c: 426:     if (is_dec_switch_pressed())
  3033     03EE  318F  27AD  3183   	fcall	_is_dec_switch_pressed
  3034     03F1  3A00               	xorlw	0
  3035     03F2  1903               	skipnz
  3036     03F3  2BF5               	goto	u2721
  3037     03F4  2BF6               	goto	u2720
  3038     03F5                     u2721:
  3039     03F5  2C10               	goto	l2498
  3040     03F6                     u2720:
  3041     03F6                     l2492:
  3042                           
  3043                           ;main.c: 427:     {;main.c: 429:         _delay((unsigned long)((5000)*(4000000/4000.0))
      +                          );
  3044     03F6  301A               	movlw	26
  3045     03F7  00F6               	movwf	??_set_factory_settings+1
  3046     03F8  305E               	movlw	94
  3047     03F9  00F5               	movwf	??_set_factory_settings
  3048     03FA  306E               	movlw	110
  3049     03FB                     u3157:
  3050     03FB  0B89               	decfsz	9,f
  3051     03FC  2BFB               	goto	u3157
  3052     03FD  0BF5               	decfsz	??_set_factory_settings,f
  3053     03FE  2BFB               	goto	u3157
  3054     03FF  0BF6               	decfsz	??_set_factory_settings+1,f
  3055     0400  2BFB               	goto	u3157
  3056     0401  3200               	nop2
  3057                           
  3058                           ;main.c: 432:         while(is_dec_switch_pressed())
  3059     0402  2C08               	goto	l2496
  3060     0403                     l177:
  3061                           
  3062                           ;main.c: 433:         {;main.c: 435:             factory_setting_mode_enabled = 1;
  3063     0403  01F7               	clrf	set_factory_settings@factory_setting_mode_enabled
  3064     0404  0AF7               	incf	set_factory_settings@factory_setting_mode_enabled,f
  3065     0405                     l2494:
  3066                           
  3067                           ;main.c: 437:             display_FR_command();
  3068     0405  318F  2772  3183   	fcall	_display_FR_command
  3069     0408                     l2496:
  3070                           
  3071                           ;main.c: 432:         while(is_dec_switch_pressed())
  3072     0408  318F  27AD  3183   	fcall	_is_dec_switch_pressed
  3073     040B  3A00               	xorlw	0
  3074     040C  1D03               	skipz
  3075     040D  2C0F               	goto	u2731
  3076     040E  2C10               	goto	u2730
  3077     040F                     u2731:
  3078     040F  2C03               	goto	l177
  3079     0410                     u2730:
  3080     0410                     l2498:
  3081                           
  3082                           ;main.c: 443:     if (factory_setting_mode_enabled)
  3083     0410  0877               	movf	set_factory_settings@factory_setting_mode_enabled,w
  3084     0411  1903               	btfsc	3,2
  3085     0412  2C14               	goto	u2741
  3086     0413  2C15               	goto	u2740
  3087     0414                     u2741:
  3088     0414  2C68               	goto	l191
  3089     0415                     u2740:
  3090     0415                     l181:	
  3091                           ;main.c: 448:         {;main.c: 449:             while(1)
  3092                           
  3093                           
  3094                           ;main.c: 450:             {;main.c: 451:                 GIE = 0;
  3095     0415  138B               	bcf	11,7	;volatile
  3096     0416                     l2500:
  3097                           
  3098                           ;main.c: 452:                 PORTC = 0b1101110;
  3099     0416  306E               	movlw	110
  3100     0417  0020               	movlb	0	; select bank0
  3101     0418  008E               	movwf	14	;volatile
  3102     0419                     l2502:
  3103                           
  3104                           ;main.c: 453:                 PORTBbits.RB3 = 0;
  3105     0419  118D               	bcf	13,3	;volatile
  3106                           
  3107                           ;main.c: 454:                 _delay((unsigned long)((1)*(4000000/4000.0)));
  3108     041A  30C8               	movlw	200
  3109     041B                     u3167:
  3110     041B  3200               	nop2
  3111     041C  0B89               	decfsz	9,f
  3112     041D  2C1B               	goto	u3167
  3113     041E                     l2504:
  3114                           
  3115                           ;main.c: 455:                 PORTBbits.RB2 = PORTBbits.RB1 = PORTBbits.RB0 = 1;
  3116     041E  0020               	movlb	0	; select bank0
  3117     041F  140D               	bsf	13,0	;volatile
  3118     0420  180D               	btfsc	13,0	;volatile
  3119     0421  2C23               	goto	u2751
  3120     0422  2C26               	goto	u2750
  3121     0423                     u2751:
  3122     0423  0020               	movlb	0	; select bank0
  3123     0424  148D               	bsf	13,1	;volatile
  3124     0425  2C28               	goto	u2764
  3125     0426                     u2750:
  3126     0426  0020               	movlb	0	; select bank0
  3127     0427  108D               	bcf	13,1	;volatile
  3128     0428                     u2764:
  3129     0428  188D               	btfsc	13,1	;volatile
  3130     0429  2C2B               	goto	u2761
  3131     042A  2C2E               	goto	u2760
  3132     042B                     u2761:
  3133     042B  0020               	movlb	0	; select bank0
  3134     042C  150D               	bsf	13,2	;volatile
  3135     042D  2C30               	goto	u2774
  3136     042E                     u2760:
  3137     042E  0020               	movlb	0	; select bank0
  3138     042F  110D               	bcf	13,2	;volatile
  3139     0430                     u2774:
  3140     0430                     l2506:
  3141                           
  3142                           ;main.c: 458:                 eeprom_write(3, f_store_last_value);
  3143     0430  303F               	movlw	63
  3144     0431  00F1               	movwf	eeprom_write@value
  3145     0432  3003               	movlw	3
  3146     0433  3187  278C  3183   	fcall	_eeprom_write
  3147     0436                     l2508:
  3148                           
  3149                           ;main.c: 460:                 if(is_inc_switch_pressed())
  3150     0436  318F  27C6  3183   	fcall	_is_inc_switch_pressed
  3151     0439  3A00               	xorlw	0
  3152     043A  1903               	skipnz
  3153     043B  2C3D               	goto	u2781
  3154     043C  2C3E               	goto	u2780
  3155     043D                     u2781:
  3156     043D  2C15               	goto	l181
  3157     043E                     u2780:
  3158     043E                     l185:	
  3159                           ;main.c: 466:             while(1)
  3160                           
  3161                           
  3162                           ;main.c: 467:             {;main.c: 468:                 GIE = 0;
  3163     043E  138B               	bcf	11,7	;volatile
  3164     043F                     l2512:
  3165                           
  3166                           ;main.c: 469:                 PORTC = 0b1010100;
  3167     043F  3054               	movlw	84
  3168     0440  0020               	movlb	0	; select bank0
  3169     0441  008E               	movwf	14	;volatile
  3170     0442                     l2514:
  3171                           
  3172                           ;main.c: 470:                 PORTBbits.RB3 = 0;
  3173     0442  118D               	bcf	13,3	;volatile
  3174                           
  3175                           ;main.c: 471:                 _delay((unsigned long)((1)*(4000000/4000.0)));
  3176     0443  30C8               	movlw	200
  3177     0444                     u3177:
  3178     0444  3200               	nop2
  3179     0445  0B89               	decfsz	9,f
  3180     0446  2C44               	goto	u3177
  3181     0447                     l2516:
  3182                           
  3183                           ;main.c: 472:                 PORTBbits.RB2 = PORTBbits.RB1 = PORTBbits.RB0 = 1;
  3184     0447  0020               	movlb	0	; select bank0
  3185     0448  140D               	bsf	13,0	;volatile
  3186     0449  180D               	btfsc	13,0	;volatile
  3187     044A  2C4C               	goto	u2791
  3188     044B  2C4F               	goto	u2790
  3189     044C                     u2791:
  3190     044C  0020               	movlb	0	; select bank0
  3191     044D  148D               	bsf	13,1	;volatile
  3192     044E  2C51               	goto	u2804
  3193     044F                     u2790:
  3194     044F  0020               	movlb	0	; select bank0
  3195     0450  108D               	bcf	13,1	;volatile
  3196     0451                     u2804:
  3197     0451  188D               	btfsc	13,1	;volatile
  3198     0452  2C54               	goto	u2801
  3199     0453  2C57               	goto	u2800
  3200     0454                     u2801:
  3201     0454  0020               	movlb	0	; select bank0
  3202     0455  150D               	bsf	13,2	;volatile
  3203     0456  2C59               	goto	u2814
  3204     0457                     u2800:
  3205     0457  0020               	movlb	0	; select bank0
  3206     0458  110D               	bcf	13,2	;volatile
  3207     0459                     u2814:
  3208     0459                     l2518:
  3209                           
  3210                           ;main.c: 475:                 eeprom_write(3, f_store_last_value);
  3211     0459  30AA               	movlw	170
  3212     045A  00F1               	movwf	eeprom_write@value
  3213     045B  3003               	movlw	3
  3214     045C  3187  278C  3183   	fcall	_eeprom_write
  3215     045F                     l2520:
  3216                           
  3217                           ;main.c: 477:                 if (is_dec_switch_pressed())
  3218     045F  318F  27AD  3183   	fcall	_is_dec_switch_pressed
  3219     0462  3A00               	xorlw	0
  3220     0463  1903               	skipnz
  3221     0464  2C66               	goto	u2821
  3222     0465  2C67               	goto	u2820
  3223     0466                     u2821:
  3224     0466  2C3E               	goto	l185
  3225     0467                     u2820:
  3226     0467  2C15               	goto	l181
  3227     0468                     l191:
  3228     0468  0008               	return
  3229     0469                     __end_of_set_factory_settings:
  3230                           
  3231                           	psect	text8
  3232     0F72                     __ptext8:	
  3233 ;; *************** function _display_FR_command *****************
  3234 ;; Defined at:
  3235 ;;		line 257 in file "main.c"
  3236 ;; Parameters:    Size  Location     Type
  3237 ;;		None
  3238 ;; Auto vars:     Size  Location     Type
  3239 ;;		None
  3240 ;; Return value:  Size  Location     Type
  3241 ;;                  1    wreg      void 
  3242 ;; Registers used:
  3243 ;;		wreg, fsr0l, fsr0h, pclath
  3244 ;; Tracked objects:
  3245 ;;		On entry : 0/0
  3246 ;;		On exit  : 0/0
  3247 ;;		Unchanged: 0/0
  3248 ;; Data sizes:     COMMON   BANK0   BANK1   BANK2   BANK3   BANK4   BANK5
  3249 ;;      Params:         0       0       0       0       0       0       0
  3250 ;;      Locals:         0       0       0       0       0       0       0
  3251 ;;      Temps:          0       0       0       0       0       0       0
  3252 ;;      Totals:         0       0       0       0       0       0       0
  3253 ;;Total ram usage:        0 bytes
  3254 ;; Hardware stack levels used: 1
  3255 ;; Hardware stack levels required when called: 1
  3256 ;; This function calls:
  3257 ;;		Nothing
  3258 ;; This function is called by:
  3259 ;;		_set_factory_settings
  3260 ;; This function uses a non-reentrant model
  3261 ;;
  3262                           
  3263     0F72                     _display_FR_command:	
  3264                           ;psect for function _display_FR_command
  3265                           
  3266     0F72                     l2336:	
  3267                           ;incstack = 0
  3268                           ; Regs used in _display_FR_command: [wreg-fsr0h+pclath]
  3269                           
  3270                           
  3271                           ;main.c: 259:     digipos[0] = 0x50;
  3272     0F72  3050               	movlw	80
  3273     0F73  0020               	movlb	0	; select bank0
  3274     0F74  00DA               	movwf	_digipos
  3275                           
  3276                           ;main.c: 260:     digipos[1] = 0x71;
  3277     0F75  3071               	movlw	113
  3278     0F76  00DB               	movwf	_digipos+1
  3279     0F77                     l2338:
  3280                           
  3281                           ;main.c: 261:     digipos[2] = DisplayNum[0];
  3282     0F77  3000               	movlw	low (_DisplayNum| (0+32768))
  3283     0F78  0084               	movwf	4
  3284     0F79  3090               	movlw	high (_DisplayNum| (0+32768))
  3285     0F7A  0085               	movwf	5
  3286     0F7B  0800               	movf	0,w	;code access
  3287     0F7C  00DC               	movwf	_digipos+2
  3288     0F7D                     l2340:
  3289                           
  3290                           ;main.c: 262:     digipos[3] = DisplayNum[0];
  3291     0F7D  3000               	movlw	low (_DisplayNum| (0+32768))
  3292     0F7E  0084               	movwf	4
  3293     0F7F  3090               	movlw	high (_DisplayNum| (0+32768))
  3294     0F80  0085               	movwf	5
  3295     0F81  0800               	movf	0,w	;code access
  3296     0F82  00DD               	movwf	_digipos+3
  3297     0F83                     l130:
  3298     0F83  0008               	return
  3299     0F84                     __end_of_display_FR_command:
  3300                           
  3301                           	psect	text9
  3302     0F4D                     __ptext9:	
  3303 ;; *************** function _init_timer *****************
  3304 ;; Defined at:
  3305 ;;		line 175 in file "main.c"
  3306 ;; Parameters:    Size  Location     Type
  3307 ;;		None
  3308 ;; Auto vars:     Size  Location     Type
  3309 ;;		None
  3310 ;; Return value:  Size  Location     Type
  3311 ;;                  1    wreg      void 
  3312 ;; Registers used:
  3313 ;;		wreg
  3314 ;; Tracked objects:
  3315 ;;		On entry : 0/0
  3316 ;;		On exit  : 0/0
  3317 ;;		Unchanged: 0/0
  3318 ;; Data sizes:     COMMON   BANK0   BANK1   BANK2   BANK3   BANK4   BANK5
  3319 ;;      Params:         0       0       0       0       0       0       0
  3320 ;;      Locals:         0       0       0       0       0       0       0
  3321 ;;      Temps:          0       0       0       0       0       0       0
  3322 ;;      Totals:         0       0       0       0       0       0       0
  3323 ;;Total ram usage:        0 bytes
  3324 ;; Hardware stack levels used: 1
  3325 ;; Hardware stack levels required when called: 1
  3326 ;; This function calls:
  3327 ;;		Nothing
  3328 ;; This function is called by:
  3329 ;;		_init
  3330 ;; This function uses a non-reentrant model
  3331 ;;
  3332                           
  3333     0F4D                     _init_timer:	
  3334                           ;psect for function _init_timer
  3335                           
  3336     0F4D                     l2416:	
  3337                           ;incstack = 0
  3338                           ; Regs used in _init_timer: [wreg]
  3339                           
  3340                           
  3341                           ;main.c: 177:  T0CS = 0;
  3342     0F4D  0021               	movlb	1	; select bank1
  3343     0F4E  1295               	bcf	21,5	;volatile
  3344                           
  3345                           ;main.c: 178:     GIE = 1;
  3346     0F4F  178B               	bsf	11,7	;volatile
  3347                           
  3348                           ;main.c: 179:  TMR0IF = 0;
  3349     0F50  110B               	bcf	11,2	;volatile
  3350                           
  3351                           ;main.c: 180:  TMR0IE = 1;
  3352     0F51  168B               	bsf	11,5	;volatile
  3353     0F52                     l2418:
  3354                           
  3355                           ;main.c: 181:  OPTION_REG = 0b10000000;
  3356     0F52  3080               	movlw	128
  3357     0F53  0095               	movwf	21	;volatile
  3358     0F54                     l106:
  3359     0F54  0008               	return
  3360     0F55                     __end_of_init_timer:
  3361                           
  3362                           	psect	text10
  3363     0F63                     __ptext10:	
  3364 ;; *************** function _init_port *****************
  3365 ;; Defined at:
  3366 ;;		line 121 in file "main.c"
  3367 ;; Parameters:    Size  Location     Type
  3368 ;;		None
  3369 ;; Auto vars:     Size  Location     Type
  3370 ;;		None
  3371 ;; Return value:  Size  Location     Type
  3372 ;;                  1    wreg      void 
  3373 ;; Registers used:
  3374 ;;		wreg, status,2
  3375 ;; Tracked objects:
  3376 ;;		On entry : 0/0
  3377 ;;		On exit  : 0/0
  3378 ;;		Unchanged: 0/0
  3379 ;; Data sizes:     COMMON   BANK0   BANK1   BANK2   BANK3   BANK4   BANK5
  3380 ;;      Params:         0       0       0       0       0       0       0
  3381 ;;      Locals:         0       0       0       0       0       0       0
  3382 ;;      Temps:          0       0       0       0       0       0       0
  3383 ;;      Totals:         0       0       0       0       0       0       0
  3384 ;;Total ram usage:        0 bytes
  3385 ;; Hardware stack levels used: 1
  3386 ;; Hardware stack levels required when called: 1
  3387 ;; This function calls:
  3388 ;;		Nothing
  3389 ;; This function is called by:
  3390 ;;		_init
  3391 ;; This function uses a non-reentrant model
  3392 ;;
  3393                           
  3394     0F63                     _init_port:	
  3395                           ;psect for function _init_port
  3396                           
  3397     0F63                     l2404:	
  3398                           ;incstack = 0
  3399                           ; Regs used in _init_port: [wreg+status,2]
  3400                           
  3401                           
  3402                           ;main.c: 122:     TRISB = 0x30;
  3403     0F63  3030               	movlw	48
  3404     0F64  0021               	movlb	1	; select bank1
  3405     0F65  008D               	movwf	13	;volatile
  3406     0F66                     l2406:
  3407                           
  3408                           ;main.c: 123:     TRISC = 0x00;
  3409     0F66  018E               	clrf	14	;volatile
  3410     0F67                     l2408:
  3411                           
  3412                           ;main.c: 124:     TRISA4 = 0;
  3413     0F67  120C               	bcf	12,4	;volatile
  3414     0F68                     l2410:
  3415                           
  3416                           ;main.c: 125:     PORTC = 0x00;
  3417     0F68  0020               	movlb	0	; select bank0
  3418     0F69  018E               	clrf	14	;volatile
  3419                           
  3420                           ;main.c: 126:     OSCCON = 0x6A;
  3421     0F6A  306A               	movlw	106
  3422     0F6B  0021               	movlb	1	; select bank1
  3423     0F6C  0099               	movwf	25	;volatile
  3424     0F6D                     l2412:
  3425                           
  3426                           ;main.c: 127:     ANSELB = 0x00;
  3427     0F6D  0023               	movlb	3	; select bank3
  3428     0F6E  018D               	clrf	13	;volatile
  3429     0F6F                     l2414:
  3430                           
  3431                           ;main.c: 128:     PORTB = 0x00;
  3432     0F6F  0020               	movlb	0	; select bank0
  3433     0F70  018D               	clrf	13	;volatile
  3434     0F71                     l91:
  3435     0F71  0008               	return
  3436     0F72                     __end_of_init_port:
  3437                           
  3438                           	psect	text11
  3439     05C9                     __ptext11:	
  3440 ;; *************** function _init_EEPROM *****************
  3441 ;; Defined at:
  3442 ;;		line 334 in file "main.c"
  3443 ;; Parameters:    Size  Location     Type
  3444 ;;		None
  3445 ;; Auto vars:     Size  Location     Type
  3446 ;;  max_upper_by    2    6[BANK0 ] unsigned short 
  3447 ;;  max_lower_by    2    4[BANK0 ] unsigned short 
  3448 ;;  last_upper_b    2    2[BANK0 ] unsigned short 
  3449 ;;  last_lower_b    2    0[BANK0 ] unsigned short 
  3450 ;; Return value:  Size  Location     Type
  3451 ;;                  1    wreg      void 
  3452 ;; Registers used:
  3453 ;;		wreg, status,2, status,0, pclath, cstack
  3454 ;; Tracked objects:
  3455 ;;		On entry : 0/0
  3456 ;;		On exit  : 0/0
  3457 ;;		Unchanged: 0/0
  3458 ;; Data sizes:     COMMON   BANK0   BANK1   BANK2   BANK3   BANK4   BANK5
  3459 ;;      Params:         0       0       0       0       0       0       0
  3460 ;;      Locals:         0       8       0       0       0       0       0
  3461 ;;      Temps:          2       0       0       0       0       0       0
  3462 ;;      Totals:         2       8       0       0       0       0       0
  3463 ;;Total ram usage:       10 bytes
  3464 ;; Hardware stack levels used: 1
  3465 ;; Hardware stack levels required when called: 2
  3466 ;; This function calls:
  3467 ;;		_eeprom_read
  3468 ;; This function is called by:
  3469 ;;		_init
  3470 ;; This function uses a non-reentrant model
  3471 ;;
  3472                           
  3473     05C9                     _init_EEPROM:	
  3474                           ;psect for function _init_EEPROM
  3475                           
  3476     05C9                     l2420:	
  3477                           ;incstack = 0
  3478                           ; Regs used in _init_EEPROM: [wreg+status,2+status,0+pclath+cstack]
  3479                           
  3480     05C9                     l2422:
  3481                           
  3482                           ;main.c: 341:     max_lower_byte_rd = (uint8_t)eeprom_read(0);
  3483     05C9  3000               	movlw	0
  3484     05CA  318F  2798  3185   	fcall	_eeprom_read
  3485     05CD  00F5               	movwf	??_init_EEPROM
  3486     05CE  01F6               	clrf	??_init_EEPROM+1
  3487     05CF  0875               	movf	??_init_EEPROM,w
  3488     05D0  0020               	movlb	0	; select bank0
  3489     05D1  00A4               	movwf	init_EEPROM@max_lower_byte_rd
  3490     05D2  0876               	movf	??_init_EEPROM+1,w
  3491     05D3  00A5               	movwf	init_EEPROM@max_lower_byte_rd+1
  3492     05D4                     l2424:
  3493                           
  3494                           ;main.c: 342:     max_upper_byte_rd = (uint8_t)eeprom_read(1);
  3495     05D4  3001               	movlw	1
  3496     05D5  318F  2798  3185   	fcall	_eeprom_read
  3497     05D8  00F5               	movwf	??_init_EEPROM
  3498     05D9  01F6               	clrf	??_init_EEPROM+1
  3499     05DA  0875               	movf	??_init_EEPROM,w
  3500     05DB  0020               	movlb	0	; select bank0
  3501     05DC  00A6               	movwf	init_EEPROM@max_upper_byte_rd
  3502     05DD  0876               	movf	??_init_EEPROM+1,w
  3503     05DE  00A7               	movwf	init_EEPROM@max_upper_byte_rd+1
  3504     05DF                     l2426:
  3505                           
  3506                           ;main.c: 343:     max_value = (uint16_t)((max_upper_byte_rd << 8) | max_lower_byte_rd) ;
  3507     05DF  0826               	movf	init_EEPROM@max_upper_byte_rd,w
  3508     05E0  00F6               	movwf	??_init_EEPROM+1
  3509     05E1  01F5               	clrf	??_init_EEPROM
  3510     05E2  0824               	movf	init_EEPROM@max_lower_byte_rd,w
  3511     05E3  0475               	iorwf	??_init_EEPROM,w
  3512     05E4  00E6               	movwf	_max_value
  3513     05E5  0825               	movf	init_EEPROM@max_lower_byte_rd+1,w
  3514     05E6  0476               	iorwf	??_init_EEPROM+1,w
  3515     05E7  00E7               	movwf	_max_value+1
  3516     05E8                     l2428:
  3517                           
  3518                           ;main.c: 345:     last_value_status = (uint8_t)eeprom_read(3);
  3519     05E8  3003               	movlw	3
  3520     05E9  318F  2798  3185   	fcall	_eeprom_read
  3521     05EC  0020               	movlb	0	; select bank0
  3522     05ED  00EE               	movwf	_last_value_status
  3523     05EE                     l2430:
  3524                           
  3525                           ;main.c: 348:     if( last_value_status == 0x3F )
  3526     05EE  303F               	movlw	63
  3527     05EF  066E               	xorwf	_last_value_status,w
  3528     05F0  1D03               	btfss	3,2
  3529     05F1  2DF3               	goto	u2641
  3530     05F2  2DF4               	goto	u2640
  3531     05F3                     u2641:
  3532     05F3  2E13               	goto	l2436
  3533     05F4                     u2640:
  3534     05F4                     l2432:
  3535                           
  3536                           ;main.c: 349:     {;main.c: 350:         last_lower_byte_rd = (uint8_t)eeprom_read(4);
  3537     05F4  3004               	movlw	4
  3538     05F5  318F  2798  3185   	fcall	_eeprom_read
  3539     05F8  00F5               	movwf	??_init_EEPROM
  3540     05F9  01F6               	clrf	??_init_EEPROM+1
  3541     05FA  0875               	movf	??_init_EEPROM,w
  3542     05FB  0020               	movlb	0	; select bank0
  3543     05FC  00A0               	movwf	init_EEPROM@last_lower_byte_rd
  3544     05FD  0876               	movf	??_init_EEPROM+1,w
  3545     05FE  00A1               	movwf	init_EEPROM@last_lower_byte_rd+1
  3546                           
  3547                           ;main.c: 351:         last_upper_byte_rd = (uint8_t)eeprom_read(5);
  3548     05FF  3005               	movlw	5
  3549     0600  318F  2798  3185   	fcall	_eeprom_read
  3550     0603  00F5               	movwf	??_init_EEPROM
  3551     0604  01F6               	clrf	??_init_EEPROM+1
  3552     0605  0875               	movf	??_init_EEPROM,w
  3553     0606  0020               	movlb	0	; select bank0
  3554     0607  00A2               	movwf	init_EEPROM@last_upper_byte_rd
  3555     0608  0876               	movf	??_init_EEPROM+1,w
  3556     0609  00A3               	movwf	init_EEPROM@last_upper_byte_rd+1
  3557     060A                     l2434:
  3558                           
  3559                           ;main.c: 352:         last_value = (uint16_t)((last_upper_byte_rd << 8) | last_lower_byt
      +                          e_rd) ;
  3560     060A  0822               	movf	init_EEPROM@last_upper_byte_rd,w
  3561     060B  00F6               	movwf	??_init_EEPROM+1
  3562     060C  01F5               	clrf	??_init_EEPROM
  3563     060D  0820               	movf	init_EEPROM@last_lower_byte_rd,w
  3564     060E  0475               	iorwf	??_init_EEPROM,w
  3565     060F  00E2               	movwf	_last_value
  3566     0610  0821               	movf	init_EEPROM@last_lower_byte_rd+1,w
  3567     0611  0476               	iorwf	??_init_EEPROM+1,w
  3568     0612  00E3               	movwf	_last_value+1
  3569     0613                     l2436:
  3570                           
  3571                           ;main.c: 355:     if ( last_value_status == 0xAA )
  3572     0613  30AA               	movlw	170
  3573     0614  066E               	xorwf	_last_value_status,w
  3574     0615  1D03               	btfss	3,2
  3575     0616  2E18               	goto	u2651
  3576     0617  2E19               	goto	u2650
  3577     0618                     u2651:
  3578     0618  2E1B               	goto	l158
  3579     0619                     u2650:
  3580     0619                     l2438:
  3581                           
  3582                           ;main.c: 356:     {;main.c: 357:        last_value = 0;
  3583     0619  01E2               	clrf	_last_value
  3584     061A  01E3               	clrf	_last_value+1
  3585     061B                     l158:
  3586     061B  0008               	return
  3587     061C                     __end_of_init_EEPROM:
  3588                           
  3589                           	psect	text12
  3590     0F98                     __ptext12:	
  3591 ;; *************** function _eeprom_read *****************
  3592 ;; Defined at:
  3593 ;;		line 6 in file "/Applications/microchip/xc8/v2.46/pic/sources/c99/pic/__eeread.c"
  3594 ;; Parameters:    Size  Location     Type
  3595 ;;  addr            1    wreg     unsigned char 
  3596 ;; Auto vars:     Size  Location     Type
  3597 ;;  addr            1    4[COMMON] unsigned char 
  3598 ;; Return value:  Size  Location     Type
  3599 ;;                  1    wreg      unsigned char 
  3600 ;; Registers used:
  3601 ;;		wreg, status,2, status,0
  3602 ;; Tracked objects:
  3603 ;;		On entry : 0/0
  3604 ;;		On exit  : 0/0
  3605 ;;		Unchanged: 0/0
  3606 ;; Data sizes:     COMMON   BANK0   BANK1   BANK2   BANK3   BANK4   BANK5
  3607 ;;      Params:         0       0       0       0       0       0       0
  3608 ;;      Locals:         1       0       0       0       0       0       0
  3609 ;;      Temps:          3       0       0       0       0       0       0
  3610 ;;      Totals:         4       0       0       0       0       0       0
  3611 ;;Total ram usage:        4 bytes
  3612 ;; Hardware stack levels used: 1
  3613 ;; Hardware stack levels required when called: 1
  3614 ;; This function calls:
  3615 ;;		Nothing
  3616 ;; This function is called by:
  3617 ;;		_init_EEPROM
  3618 ;; This function uses a non-reentrant model
  3619 ;;
  3620                           
  3621     0F98                     _eeprom_read:	
  3622                           ;psect for function _eeprom_read
  3623                           
  3624                           
  3625                           ;incstack = 0
  3626                           ; Regs used in _eeprom_read: [wreg+status,2+status,0]
  3627                           ;eeprom_read@addr stored from wreg
  3628     0F98  00F4               	movwf	eeprom_read@addr
  3629     0F99                     l366:	
  3630                           ;/Applications/microchip/xc8/v2.46/pic/sources/c99/pic/__eeread.c: 6: eeprom_read(unsign
      +                          ed char addr);/Applications/microchip/xc8/v2.46/pic/sources/c99/pic/__eeread.c: 7: {;/Ap
      +                          plications/microchip/xc8/v2.46/pic/sources/c99/pic/__eeread.c: 8:  do
  3631                           
  3632     0F99  0064               	clrwdt	;# 
  3633     0F9A  0023               	movlb	3	; select bank3
  3634     0F9B  1895               	btfsc	21,1	;volsfr
  3635     0F9C  2F9E               	goto	u2601
  3636     0F9D  2F9F               	goto	u2600
  3637     0F9E                     u2601:
  3638     0F9E  2F99               	goto	l366
  3639     0F9F                     u2600:
  3640     0F9F                     l2366:
  3641                           
  3642                           ;/Applications/microchip/xc8/v2.46/pic/sources/c99/pic/__eeread.c: 18:  return ( EEADR =
      +                           addr, EECON1 &= 0x3F, EECON1bits.RD = 1, EEDATA);
  3643     0F9F  0874               	movf	eeprom_read@addr,w
  3644     0FA0  00F1               	movwf	??_eeprom_read
  3645     0FA1  01F2               	clrf	??_eeprom_read+1
  3646     0FA2  0871               	movf	??_eeprom_read,w
  3647     0FA3  0091               	movwf	17	;volatile
  3648     0FA4  0872               	movf	??_eeprom_read+1,w
  3649     0FA5  0092               	movwf	18	;volatile
  3650     0FA6  303F               	movlw	63
  3651     0FA7  00F3               	movwf	??_eeprom_read+2
  3652     0FA8  0873               	movf	??_eeprom_read+2,w
  3653     0FA9  0595               	andwf	21,f	;volsfr
  3654     0FAA  1415               	bsf	21,0	;volsfr
  3655     0FAB  0813               	movf	19,w	;volatile
  3656     0FAC                     l368:
  3657     0FAC  0008               	return
  3658     0FAD                     __end_of_eeprom_read:
  3659                           
  3660                           	psect	text13
  3661     0F84                     __ptext13:	
  3662 ;; *************** function _initPwm *****************
  3663 ;; Defined at:
  3664 ;;		line 95 in file "main.c"
  3665 ;; Parameters:    Size  Location     Type
  3666 ;;		None
  3667 ;; Auto vars:     Size  Location     Type
  3668 ;;		None
  3669 ;; Return value:  Size  Location     Type
  3670 ;;                  1    wreg      void 
  3671 ;; Registers used:
  3672 ;;		wreg, status,2, status,0, pclath, cstack
  3673 ;; Tracked objects:
  3674 ;;		On entry : 0/0
  3675 ;;		On exit  : 0/0
  3676 ;;		Unchanged: 0/0
  3677 ;; Data sizes:     COMMON   BANK0   BANK1   BANK2   BANK3   BANK4   BANK5
  3678 ;;      Params:         0       0       0       0       0       0       0
  3679 ;;      Locals:         0       0       0       0       0       0       0
  3680 ;;      Temps:          0       0       0       0       0       0       0
  3681 ;;      Totals:         0       0       0       0       0       0       0
  3682 ;;Total ram usage:        0 bytes
  3683 ;; Hardware stack levels used: 1
  3684 ;; Hardware stack levels required when called: 2
  3685 ;; This function calls:
  3686 ;;		_load_pwm
  3687 ;; This function is called by:
  3688 ;;		_init
  3689 ;; This function uses a non-reentrant model
  3690 ;;
  3691                           
  3692     0F84                     _initPwm:	
  3693                           ;psect for function _initPwm
  3694                           
  3695     0F84                     l2390:	
  3696                           ;incstack = 0
  3697                           ; Regs used in _initPwm: [wreg+status,2+status,0+pclath+cstack]
  3698                           
  3699                           
  3700                           ;main.c: 98:     CCP5CON = 0;
  3701     0F84  0026               	movlb	6	; select bank6
  3702     0F85  019E               	clrf	30	;volatile
  3703                           
  3704                           ;main.c: 99:     TMR2 = 0;
  3705     0F86  0020               	movlb	0	; select bank0
  3706     0F87  019A               	clrf	26	;volatile
  3707     0F88                     l2392:
  3708                           
  3709                           ;main.c: 106:     PR2 = (uint8_t)((250000/(4*250 )) - 1);
  3710     0F88  30F9               	movlw	249
  3711     0F89  009B               	movwf	27	;volatile
  3712     0F8A                     l2394:
  3713                           
  3714                           ;main.c: 107:     CCP5CON = 0x0C;
  3715     0F8A  300C               	movlw	12
  3716     0F8B  0026               	movlb	6	; select bank6
  3717     0F8C  009E               	movwf	30	;volatile
  3718     0F8D                     l2396:
  3719                           
  3720                           ;main.c: 108:     TMR2IF = 0;
  3721     0F8D  0020               	movlb	0	; select bank0
  3722     0F8E  1091               	bcf	17,1	;volatile
  3723     0F8F                     l2398:
  3724                           
  3725                           ;main.c: 109:     TMR2IE = 0;
  3726     0F8F  0021               	movlb	1	; select bank1
  3727     0F90  1091               	bcf	17,1	;volatile
  3728     0F91                     l2400:
  3729                           
  3730                           ;main.c: 110:     load_pwm(0);
  3731     0F91  3000               	movlw	0
  3732     0F92  318F  27DF  318F   	fcall	_load_pwm
  3733     0F95                     l2402:
  3734                           
  3735                           ;main.c: 111:     TRISA4 = 0;
  3736     0F95  0021               	movlb	1	; select bank1
  3737     0F96  120C               	bcf	12,4	;volatile
  3738     0F97                     l85:
  3739     0F97  0008               	return
  3740     0F98                     __end_of_initPwm:
  3741                           
  3742                           	psect	text14
  3743     0FDF                     __ptext14:	
  3744 ;; *************** function _load_pwm *****************
  3745 ;; Defined at:
  3746 ;;		line 73 in file "main.c"
  3747 ;; Parameters:    Size  Location     Type
  3748 ;;  pwm_value       1    wreg     unsigned char 
  3749 ;; Auto vars:     Size  Location     Type
  3750 ;;  pwm_value       1    5[COMMON] unsigned char 
  3751 ;;  msb             1    4[COMMON] unsigned char 
  3752 ;;  lsb             1    3[COMMON] unsigned char 
  3753 ;; Return value:  Size  Location     Type
  3754 ;;                  1    wreg      void 
  3755 ;; Registers used:
  3756 ;;		wreg, status,2, status,0
  3757 ;; Tracked objects:
  3758 ;;		On entry : 0/0
  3759 ;;		On exit  : 0/0
  3760 ;;		Unchanged: 0/0
  3761 ;; Data sizes:     COMMON   BANK0   BANK1   BANK2   BANK3   BANK4   BANK5
  3762 ;;      Params:         0       0       0       0       0       0       0
  3763 ;;      Locals:         3       0       0       0       0       0       0
  3764 ;;      Temps:          2       0       0       0       0       0       0
  3765 ;;      Totals:         5       0       0       0       0       0       0
  3766 ;;Total ram usage:        5 bytes
  3767 ;; Hardware stack levels used: 1
  3768 ;; Hardware stack levels required when called: 1
  3769 ;; This function calls:
  3770 ;;		Nothing
  3771 ;; This function is called by:
  3772 ;;		_initPwm
  3773 ;;		_main
  3774 ;; This function uses a non-reentrant model
  3775 ;;
  3776                           
  3777     0FDF                     _load_pwm:	
  3778                           ;psect for function _load_pwm
  3779                           
  3780                           
  3781                           ;incstack = 0
  3782                           ; Regs used in _load_pwm: [wreg+status,2+status,0]
  3783                           ;load_pwm@pwm_value stored from wreg
  3784     0FDF  00F5               	movwf	load_pwm@pwm_value
  3785     0FE0                     l2318:
  3786                           
  3787                           ;main.c: 73: void load_pwm(uint8_t pwm_value);main.c: 74: {;main.c: 75:     unsigned cha
      +                          r lsb,msb;;main.c: 77:     lsb = (pwm_value & 0x0003);
  3788     0FE0  0875               	movf	load_pwm@pwm_value,w
  3789     0FE1  3903               	andlw	3
  3790     0FE2  00F3               	movwf	load_pwm@lsb
  3791     0FE3                     l2320:
  3792                           
  3793                           ;main.c: 78:     CCP5CON |= (lsb << 5);
  3794     0FE3  0873               	movf	load_pwm@lsb,w	;volatile
  3795     0FE4  00F1               	movwf	??_load_pwm
  3796     0FE5  3004               	movlw	4
  3797     0FE6                     u2535:
  3798     0FE6  35F1               	lslf	??_load_pwm,f
  3799     0FE7  3EFF               	addlw	-1
  3800     0FE8  1D03               	skipz
  3801     0FE9  2FE6               	goto	u2535
  3802     0FEA  3571               	lslf	??_load_pwm,w
  3803     0FEB  00F2               	movwf	??_load_pwm+1
  3804     0FEC  0872               	movf	??_load_pwm+1,w
  3805     0FED  0026               	movlb	6	; select bank6
  3806     0FEE  049E               	iorwf	30,f	;volatile
  3807     0FEF                     l2322:
  3808                           
  3809                           ;main.c: 80:     msb = (unsigned char) (pwm_value >> 2);
  3810     0FEF  0875               	movf	load_pwm@pwm_value,w
  3811     0FF0  00F1               	movwf	??_load_pwm
  3812     0FF1  3002               	movlw	2
  3813     0FF2                     u2545:
  3814     0FF2  36F1               	lsrf	??_load_pwm,f
  3815     0FF3  0B89               	decfsz	9,f
  3816     0FF4  2FF2               	goto	u2545
  3817     0FF5  0871               	movf	??_load_pwm,w
  3818     0FF6  00F4               	movwf	load_pwm@msb
  3819     0FF7                     l2324:
  3820                           
  3821                           ;main.c: 81:     CCPR5L = msb;
  3822     0FF7  0874               	movf	load_pwm@msb,w
  3823     0FF8  009C               	movwf	28	;volatile
  3824     0FF9                     l2326:
  3825                           
  3826                           ;main.c: 83:     TMR2ON = 1;
  3827     0FF9  0020               	movlb	0	; select bank0
  3828     0FFA  151C               	bsf	28,2	;volatile
  3829     0FFB                     l2328:
  3830                           
  3831                           ;main.c: 86:     {;main.c: 87:         if( TMR2IF == 1 )
  3832     0FFB  1C91               	btfss	17,1	;volatile
  3833     0FFC  2FFE               	goto	u2551
  3834     0FFD  2FFF               	goto	u2550
  3835     0FFE                     u2551:
  3836     0FFE  2FFB               	goto	l2328
  3837     0FFF                     u2550:
  3838     0FFF                     l82:
  3839     0FFF  0008               	return
  3840     1000                     __end_of_load_pwm:
  3841                           
  3842                           	psect	text15
  3843     04E3                     __ptext15:	
  3844 ;; *************** function _check_and_set_max *****************
  3845 ;; Defined at:
  3846 ;;		line 362 in file "main.c"
  3847 ;; Parameters:    Size  Location     Type
  3848 ;;		None
  3849 ;; Auto vars:     Size  Location     Type
  3850 ;;  max_eeprom      2   17[BANK0 ] unsigned short 
  3851 ;;  max_upper_by    1   16[BANK0 ] unsigned char 
  3852 ;;  max_lower_by    1   14[BANK0 ] unsigned char 
  3853 ;;  some_value_s    1   19[BANK0 ] unsigned char 
  3854 ;;  max_value_se    1   15[BANK0 ] unsigned char 
  3855 ;; Return value:  Size  Location     Type
  3856 ;;                  1    wreg      void 
  3857 ;; Registers used:
  3858 ;;		wreg, fsr0l, fsr0h, status,2, status,0, pclath, cstack
  3859 ;; Tracked objects:
  3860 ;;		On entry : 0/0
  3861 ;;		On exit  : 0/0
  3862 ;;		Unchanged: 0/0
  3863 ;; Data sizes:     COMMON   BANK0   BANK1   BANK2   BANK3   BANK4   BANK5
  3864 ;;      Params:         0       0       0       0       0       0       0
  3865 ;;      Locals:         0       6       0       0       0       0       0
  3866 ;;      Temps:          0       2       0       0       0       0       0
  3867 ;;      Totals:         0       8       0       0       0       0       0
  3868 ;;Total ram usage:        8 bytes
  3869 ;; Hardware stack levels used: 1
  3870 ;; Hardware stack levels required when called: 5
  3871 ;; This function calls:
  3872 ;;		_display_SET_command
  3873 ;;		_display_digit
  3874 ;;		_eeprom_write
  3875 ;;		_get_and_set_decrement
  3876 ;;		_get_and_set_increment
  3877 ;;		_is_dec_switch_pressed
  3878 ;;		_is_inc_switch_pressed
  3879 ;; This function is called by:
  3880 ;;		_init
  3881 ;; This function uses a non-reentrant model
  3882 ;;
  3883                           
  3884     04E3                     _check_and_set_max:	
  3885                           ;psect for function _check_and_set_max
  3886                           
  3887     04E3                     l2440:	
  3888                           ;incstack = 0
  3889                           ; Regs used in _check_and_set_max: [wreg-fsr0h+status,2+status,0+pclath+cstack]
  3890                           
  3891                           
  3892                           ;main.c: 366:     uint8_t max_value_setting_selected = 0;
  3893     04E3  0020               	movlb	0	; select bank0
  3894     04E4  01AF               	clrf	check_and_set_max@max_value_setting_selected
  3895     04E5                     l2442:
  3896                           
  3897                           ;main.c: 368:     if (is_inc_switch_pressed())
  3898     04E5  318F  27C6  3184   	fcall	_is_inc_switch_pressed
  3899     04E8  3A00               	xorlw	0
  3900     04E9  1903               	skipnz
  3901     04EA  2CEC               	goto	u2661
  3902     04EB  2CED               	goto	u2660
  3903     04EC                     u2661:
  3904     04EC  2D09               	goto	l2452
  3905     04ED                     u2660:
  3906     04ED                     l2444:
  3907                           
  3908                           ;main.c: 369:     {;main.c: 370:         _delay((unsigned long)((5000)*(4000000/4000.0))
      +                          );
  3909     04ED  301A               	movlw	26
  3910     04EE  0020               	movlb	0	; select bank0
  3911     04EF  00AD               	movwf	??_check_and_set_max+1
  3912     04F0  305E               	movlw	94
  3913     04F1  00AC               	movwf	??_check_and_set_max
  3914     04F2  306E               	movlw	110
  3915     04F3                     u3187:
  3916     04F3  0B89               	decfsz	9,f
  3917     04F4  2CF3               	goto	u3187
  3918     04F5  0BAC               	decfsz	??_check_and_set_max,f
  3919     04F6  2CF3               	goto	u3187
  3920     04F7  0BAD               	decfsz	??_check_and_set_max+1,f
  3921     04F8  2CF3               	goto	u3187
  3922     04F9  0000               	nop
  3923                           
  3924                           ;main.c: 372:         while(is_inc_switch_pressed())
  3925     04FA  2D01               	goto	l2450
  3926     04FB                     l2446:
  3927                           
  3928                           ;main.c: 373:         {;main.c: 375:            display_SET_command();
  3929     04FB  318F  2755  3184   	fcall	_display_SET_command
  3930     04FE                     l2448:
  3931                           
  3932                           ;main.c: 376:            max_value_setting_selected = 1;
  3933     04FE  0020               	movlb	0	; select bank0
  3934     04FF  01AF               	clrf	check_and_set_max@max_value_setting_selected
  3935     0500  0AAF               	incf	check_and_set_max@max_value_setting_selected,f
  3936     0501                     l2450:
  3937                           
  3938                           ;main.c: 372:         while(is_inc_switch_pressed())
  3939     0501  318F  27C6  3184   	fcall	_is_inc_switch_pressed
  3940     0504  3A00               	xorlw	0
  3941     0505  1D03               	skipz
  3942     0506  2D08               	goto	u2671
  3943     0507  2D09               	goto	u2670
  3944     0508                     u2671:
  3945     0508  2CFB               	goto	l2446
  3946     0509                     u2670:
  3947     0509                     l2452:
  3948                           
  3949                           ;main.c: 382:     if(max_value_setting_selected)
  3950     0509  0020               	movlb	0	; select bank0
  3951     050A  082F               	movf	check_and_set_max@max_value_setting_selected,w
  3952     050B  1903               	btfsc	3,2
  3953     050C  2D0E               	goto	u2681
  3954     050D  2D0F               	goto	u2680
  3955     050E                     u2681:
  3956     050E  2D57               	goto	l172
  3957     050F                     u2680:
  3958     050F                     l2454:
  3959                           
  3960                           ;main.c: 383:     {;main.c: 385:         curr_value = 0;
  3961     050F  01E4               	clrf	_curr_value
  3962     0510  01E5               	clrf	_curr_value+1
  3963     0511                     l2456:
  3964                           
  3965                           ;main.c: 386:         max_value = 10000;
  3966     0511  3010               	movlw	16
  3967     0512  00E6               	movwf	_max_value
  3968     0513  3027               	movlw	39
  3969     0514  00E7               	movwf	_max_value+1
  3970     0515                     l2458:
  3971                           
  3972                           ;main.c: 388:         {;main.c: 389:             uint8_t some_value_set = 0;
  3973     0515  0020               	movlb	0	; select bank0
  3974     0516  01B3               	clrf	check_and_set_max@some_value_set
  3975     0517                     l2460:
  3976                           
  3977                           ;main.c: 391:             if(is_inc_switch_pressed())
  3978     0517  318F  27C6  3184   	fcall	_is_inc_switch_pressed
  3979     051A  3A00               	xorlw	0
  3980     051B  1903               	skipnz
  3981     051C  2D1E               	goto	u2691
  3982     051D  2D1F               	goto	u2690
  3983     051E                     u2691:
  3984     051E  2D25               	goto	l2466
  3985     051F                     u2690:
  3986     051F                     l2462:
  3987                           
  3988                           ;main.c: 392:             {;main.c: 393:                 get_and_set_increment();
  3989     051F  3187  2761  3184   	fcall	_get_and_set_increment
  3990     0522                     l2464:
  3991                           
  3992                           ;main.c: 394:                 some_value_set = 1;
  3993     0522  0020               	movlb	0	; select bank0
  3994     0523  01B3               	clrf	check_and_set_max@some_value_set
  3995     0524  0AB3               	incf	check_and_set_max@some_value_set,f
  3996     0525                     l2466:
  3997                           
  3998                           ;main.c: 397:             if(is_dec_switch_pressed())
  3999     0525  318F  27AD  3184   	fcall	_is_dec_switch_pressed
  4000     0528  3A00               	xorlw	0
  4001     0529  1903               	skipnz
  4002     052A  2D2C               	goto	u2701
  4003     052B  2D2D               	goto	u2700
  4004     052C                     u2701:
  4005     052C  2D33               	goto	l168
  4006     052D                     u2700:
  4007     052D                     l2468:
  4008                           
  4009                           ;main.c: 398:             {;main.c: 399:                 get_and_set_decrement();
  4010     052D  3187  27B6  3184   	fcall	_get_and_set_decrement
  4011     0530                     l2470:
  4012                           
  4013                           ;main.c: 400:                 some_value_set = 1;
  4014     0530  0020               	movlb	0	; select bank0
  4015     0531  01B3               	clrf	check_and_set_max@some_value_set
  4016     0532  0AB3               	incf	check_and_set_max@some_value_set,f
  4017     0533                     l168:	
  4018                           ;main.c: 401:             }
  4019                           
  4020                           
  4021                           ;main.c: 403:             display_digit(curr_value);
  4022     0533  0020               	movlb	0	; select bank0
  4023     0534  0865               	movf	_curr_value+1,w
  4024     0535  00A5               	movwf	display_digit@value+1
  4025     0536  0864               	movf	_curr_value,w
  4026     0537  00A4               	movwf	display_digit@value
  4027     0538  3184  2469  3184   	fcall	_display_digit
  4028     053B                     l2472:
  4029                           
  4030                           ;main.c: 405:             if (some_value_set)
  4031     053B  0020               	movlb	0	; select bank0
  4032     053C  0833               	movf	check_and_set_max@some_value_set,w
  4033     053D  1903               	btfsc	3,2
  4034     053E  2D40               	goto	u2711
  4035     053F  2D41               	goto	u2710
  4036     0540                     u2711:
  4037     0540  2D15               	goto	l2458
  4038     0541                     u2710:
  4039     0541                     l2474:
  4040                           
  4041                           ;main.c: 406:             {;main.c: 407:                 uint16_t max_eeprom = curr_valu
      +                          e;
  4042     0541  0865               	movf	_curr_value+1,w
  4043     0542  00B2               	movwf	check_and_set_max@max_eeprom+1
  4044     0543  0864               	movf	_curr_value,w
  4045     0544  00B1               	movwf	check_and_set_max@max_eeprom
  4046     0545                     l2476:
  4047     0545                     l2478:
  4048                           
  4049                           ;main.c: 410:                 max_lower_byte_wr = max_eeprom & 0xFF ;
  4050     0545  0831               	movf	check_and_set_max@max_eeprom,w
  4051     0546  00AE               	movwf	check_and_set_max@max_lower_byte_wr
  4052     0547                     l2480:
  4053                           
  4054                           ;main.c: 411:                 max_upper_byte_wr = (max_eeprom >> 8) & 0xFF ;
  4055     0547  0832               	movf	check_and_set_max@max_eeprom+1,w
  4056     0548  00B0               	movwf	check_and_set_max@max_upper_byte_wr
  4057     0549                     l2482:
  4058                           
  4059                           ;main.c: 412:                 eeprom_write(0,max_lower_byte_wr);
  4060     0549  082E               	movf	check_and_set_max@max_lower_byte_wr,w
  4061     054A  00F1               	movwf	eeprom_write@value
  4062     054B  3000               	movlw	0
  4063     054C  3187  278C  3184   	fcall	_eeprom_write
  4064     054F                     l2484:
  4065                           
  4066                           ;main.c: 413:                 eeprom_write(1,max_upper_byte_wr);
  4067     054F  0020               	movlb	0	; select bank0
  4068     0550  0830               	movf	check_and_set_max@max_upper_byte_wr,w
  4069     0551  00F1               	movwf	eeprom_write@value
  4070     0552  3001               	movlw	1
  4071     0553  3187  278C  3184   	fcall	_eeprom_write
  4072     0556                     l2486:
  4073     0556  2D15               	goto	l2458
  4074     0557                     l172:
  4075     0557  0008               	return
  4076     0558                     __end_of_check_and_set_max:
  4077                           
  4078                           	psect	text16
  4079     0761                     __ptext16:	
  4080 ;; *************** function _get_and_set_increment *****************
  4081 ;; Defined at:
  4082 ;;		line 290 in file "main.c"
  4083 ;; Parameters:    Size  Location     Type
  4084 ;;		None
  4085 ;; Auto vars:     Size  Location     Type
  4086 ;;  counter         2   10[BANK0 ] unsigned short 
  4087 ;; Return value:  Size  Location     Type
  4088 ;;                  1    wreg      void 
  4089 ;; Registers used:
  4090 ;;		wreg, fsr0l, fsr0h, status,2, status,0, pclath, cstack
  4091 ;; Tracked objects:
  4092 ;;		On entry : 0/0
  4093 ;;		On exit  : 0/0
  4094 ;;		Unchanged: 0/0
  4095 ;; Data sizes:     COMMON   BANK0   BANK1   BANK2   BANK3   BANK4   BANK5
  4096 ;;      Params:         0       0       0       0       0       0       0
  4097 ;;      Locals:         0       2       0       0       0       0       0
  4098 ;;      Temps:          0       0       0       0       0       0       0
  4099 ;;      Totals:         0       2       0       0       0       0       0
  4100 ;;Total ram usage:        2 bytes
  4101 ;; Hardware stack levels used: 1
  4102 ;; Hardware stack levels required when called: 4
  4103 ;; This function calls:
  4104 ;;		_is_inc_switch_pressed
  4105 ;;		_set_delays
  4106 ;; This function is called by:
  4107 ;;		_check_and_set_max
  4108 ;;		_main
  4109 ;; This function uses a non-reentrant model
  4110 ;;
  4111                           
  4112     0761                     _get_and_set_increment:	
  4113                           ;psect for function _get_and_set_increment
  4114                           
  4115     0761                     l2342:	
  4116                           ;incstack = 0
  4117                           ; Regs used in _get_and_set_increment: [wreg-fsr0h+status,2+status,0+pclath+cstack]
  4118                           
  4119                           
  4120                           ;main.c: 292:     uint16_t counter = 0 ;
  4121     0761  0020               	movlb	0	; select bank0
  4122     0762  01AA               	clrf	get_and_set_increment@counter
  4123     0763  01AB               	clrf	get_and_set_increment@counter+1
  4124     0764                     l2344:
  4125                           
  4126                           ;main.c: 296:         if(curr_value < max_value)
  4127     0764  0020               	movlb	0	; select bank0
  4128     0765  0867               	movf	_max_value+1,w
  4129     0766  0265               	subwf	_curr_value+1,w
  4130     0767  1D03               	skipz
  4131     0768  2F6B               	goto	u2565
  4132     0769  0866               	movf	_max_value,w
  4133     076A  0264               	subwf	_curr_value,w
  4134     076B                     u2565:
  4135     076B  1803               	skipnc
  4136     076C  2F6E               	goto	u2561
  4137     076D  2F6F               	goto	u2560
  4138     076E                     u2561:
  4139     076E  2F78               	goto	l2348
  4140     076F                     u2560:
  4141     076F                     l2346:
  4142                           
  4143                           ;main.c: 297:         {;main.c: 298:            curr_value += 1 ;counter += 1;
  4144     076F  3001               	movlw	1
  4145     0770  07E4               	addwf	_curr_value,f
  4146     0771  3000               	movlw	0
  4147     0772  3DE5               	addwfc	_curr_value+1,f
  4148     0773  3001               	movlw	1
  4149     0774  07AA               	addwf	get_and_set_increment@counter,f
  4150     0775  3000               	movlw	0
  4151     0776  3DAB               	addwfc	get_and_set_increment@counter+1,f
  4152                           
  4153                           ;main.c: 299:         }
  4154     0777  2F7C               	goto	l2350
  4155     0778                     l2348:
  4156                           
  4157                           ;main.c: 301:         {;main.c: 302:            curr_value = max_value;
  4158     0778  0867               	movf	_max_value+1,w
  4159     0779  00E5               	movwf	_curr_value+1
  4160     077A  0866               	movf	_max_value,w
  4161     077B  00E4               	movwf	_curr_value
  4162     077C                     l2350:
  4163                           
  4164                           ;main.c: 305:         set_delays(counter);
  4165     077C  082B               	movf	get_and_set_increment@counter+1,w
  4166     077D  00A7               	movwf	set_delays@counter+1
  4167     077E  082A               	movf	get_and_set_increment@counter,w
  4168     077F  00A6               	movwf	set_delays@counter
  4169     0780  3186  266C  3187   	fcall	_set_delays
  4170     0783                     l2352:
  4171                           
  4172                           ;main.c: 308:     }while(is_inc_switch_pressed());
  4173     0783  318F  27C6  3187   	fcall	_is_inc_switch_pressed
  4174     0786  3A00               	xorlw	0
  4175     0787  1D03               	skipz
  4176     0788  2F8A               	goto	u2571
  4177     0789  2F8B               	goto	u2570
  4178     078A                     u2571:
  4179     078A  2F64               	goto	l2344
  4180     078B                     u2570:
  4181     078B                     l146:
  4182     078B  0008               	return
  4183     078C                     __end_of_get_and_set_increment:
  4184                           
  4185                           	psect	text17
  4186     0FC6                     __ptext17:	
  4187 ;; *************** function _is_inc_switch_pressed *****************
  4188 ;; Defined at:
  4189 ;;		line 131 in file "main.c"
  4190 ;; Parameters:    Size  Location     Type
  4191 ;;		None
  4192 ;; Auto vars:     Size  Location     Type
  4193 ;;  switch_statu    1    2[COMMON] unsigned char 
  4194 ;; Return value:  Size  Location     Type
  4195 ;;                  1    wreg      unsigned char 
  4196 ;; Registers used:
  4197 ;;		wreg, status,2
  4198 ;; Tracked objects:
  4199 ;;		On entry : 0/0
  4200 ;;		On exit  : 0/0
  4201 ;;		Unchanged: 0/0
  4202 ;; Data sizes:     COMMON   BANK0   BANK1   BANK2   BANK3   BANK4   BANK5
  4203 ;;      Params:         0       0       0       0       0       0       0
  4204 ;;      Locals:         1       0       0       0       0       0       0
  4205 ;;      Temps:          1       0       0       0       0       0       0
  4206 ;;      Totals:         2       0       0       0       0       0       0
  4207 ;;Total ram usage:        2 bytes
  4208 ;; Hardware stack levels used: 1
  4209 ;; Hardware stack levels required when called: 1
  4210 ;; This function calls:
  4211 ;;		Nothing
  4212 ;; This function is called by:
  4213 ;;		_get_and_set_increment
  4214 ;;		_check_and_set_max
  4215 ;;		_set_factory_settings
  4216 ;;		_main
  4217 ;; This function uses a non-reentrant model
  4218 ;;
  4219                           
  4220     0FC6                     _is_inc_switch_pressed:	
  4221                           ;psect for function _is_inc_switch_pressed
  4222                           
  4223     0FC6                     l2264:	
  4224                           ;incstack = 0
  4225                           ; Regs used in _is_inc_switch_pressed: [wreg+status,2]
  4226                           
  4227                           
  4228                           ;main.c: 133:     uint8_t switch_status = 0;
  4229     0FC6  01F2               	clrf	is_inc_switch_pressed@switch_status
  4230     0FC7                     l2266:
  4231                           
  4232                           ;main.c: 135:     if(PORTBbits.RB4 == 0)
  4233     0FC7  0020               	movlb	0	; select bank0
  4234     0FC8  1A0D               	btfsc	13,4	;volatile
  4235     0FC9  2FCB               	goto	u2461
  4236     0FCA  2FCC               	goto	u2460
  4237     0FCB                     u2461:
  4238     0FCB  2FDD               	goto	l2276
  4239     0FCC                     u2460:
  4240     0FCC                     l2268:
  4241                           
  4242                           ;main.c: 136:     {;main.c: 138:         _delay((unsigned long)((20)*(4000000/4000.0)));
  4243     0FCC  301A               	movlw	26
  4244     0FCD  00F1               	movwf	??_is_inc_switch_pressed
  4245     0FCE  30F8               	movlw	248
  4246     0FCF                     u3197:
  4247     0FCF  0B89               	decfsz	9,f
  4248     0FD0  2FCF               	goto	u3197
  4249     0FD1  0BF1               	decfsz	??_is_inc_switch_pressed,f
  4250     0FD2  2FCF               	goto	u3197
  4251     0FD3  3200               	nop2
  4252     0FD4                     l2270:
  4253                           
  4254                           ;main.c: 140:         if(PORTBbits.RB4 == 0)
  4255     0FD4  0020               	movlb	0	; select bank0
  4256     0FD5  1A0D               	btfsc	13,4	;volatile
  4257     0FD6  2FD8               	goto	u2471
  4258     0FD7  2FD9               	goto	u2470
  4259     0FD8                     u2471:
  4260     0FD8  2FDC               	goto	l2274
  4261     0FD9                     u2470:
  4262     0FD9                     l2272:
  4263                           
  4264                           ;main.c: 141:         {;main.c: 142:             switch_status = 1 ;
  4265     0FD9  01F2               	clrf	is_inc_switch_pressed@switch_status
  4266     0FDA  0AF2               	incf	is_inc_switch_pressed@switch_status,f
  4267                           
  4268                           ;main.c: 143:         }
  4269     0FDB  2FDD               	goto	l2276
  4270     0FDC                     l2274:
  4271                           
  4272                           ;main.c: 145:         {;main.c: 146:             switch_status = 0 ;
  4273     0FDC  01F2               	clrf	is_inc_switch_pressed@switch_status
  4274     0FDD                     l2276:
  4275                           
  4276                           ;main.c: 150:     return switch_status ;
  4277     0FDD  0872               	movf	is_inc_switch_pressed@switch_status,w
  4278     0FDE                     l97:
  4279     0FDE  0008               	return
  4280     0FDF                     __end_of_is_inc_switch_pressed:
  4281                           
  4282                           	psect	text18
  4283     07B6                     __ptext18:	
  4284 ;; *************** function _get_and_set_decrement *****************
  4285 ;; Defined at:
  4286 ;;		line 312 in file "main.c"
  4287 ;; Parameters:    Size  Location     Type
  4288 ;;		None
  4289 ;; Auto vars:     Size  Location     Type
  4290 ;;  counter         2   10[BANK0 ] unsigned short 
  4291 ;; Return value:  Size  Location     Type
  4292 ;;                  1    wreg      void 
  4293 ;; Registers used:
  4294 ;;		wreg, fsr0l, fsr0h, status,2, status,0, pclath, cstack
  4295 ;; Tracked objects:
  4296 ;;		On entry : 0/0
  4297 ;;		On exit  : 0/0
  4298 ;;		Unchanged: 0/0
  4299 ;; Data sizes:     COMMON   BANK0   BANK1   BANK2   BANK3   BANK4   BANK5
  4300 ;;      Params:         0       0       0       0       0       0       0
  4301 ;;      Locals:         0       2       0       0       0       0       0
  4302 ;;      Temps:          0       0       0       0       0       0       0
  4303 ;;      Totals:         0       2       0       0       0       0       0
  4304 ;;Total ram usage:        2 bytes
  4305 ;; Hardware stack levels used: 1
  4306 ;; Hardware stack levels required when called: 4
  4307 ;; This function calls:
  4308 ;;		_is_dec_switch_pressed
  4309 ;;		_set_delays
  4310 ;; This function is called by:
  4311 ;;		_check_and_set_max
  4312 ;;		_main
  4313 ;; This function uses a non-reentrant model
  4314 ;;
  4315                           
  4316     07B6                     _get_and_set_decrement:	
  4317                           ;psect for function _get_and_set_decrement
  4318                           
  4319     07B6                     l2354:	
  4320                           ;incstack = 0
  4321                           ; Regs used in _get_and_set_decrement: [wreg-fsr0h+status,2+status,0+pclath+cstack]
  4322                           
  4323                           
  4324                           ;main.c: 314:     uint16_t counter = 0;
  4325     07B6  0020               	movlb	0	; select bank0
  4326     07B7  01AA               	clrf	get_and_set_decrement@counter
  4327     07B8  01AB               	clrf	get_and_set_decrement@counter+1
  4328     07B9                     l2356:
  4329                           
  4330                           ;main.c: 317:         if(curr_value > 0)
  4331     07B9  0020               	movlb	0	; select bank0
  4332     07BA  0864               	movf	_curr_value,w
  4333     07BB  0465               	iorwf	_curr_value+1,w
  4334     07BC  1903               	btfsc	3,2
  4335     07BD  2FBF               	goto	u2581
  4336     07BE  2FC0               	goto	u2580
  4337     07BF                     u2581:
  4338     07BF  2FC9               	goto	l2360
  4339     07C0                     u2580:
  4340     07C0                     l2358:
  4341                           
  4342                           ;main.c: 318:         {;main.c: 319:            curr_value -= 1 ;counter += 1;
  4343     07C0  3001               	movlw	1
  4344     07C1  02E4               	subwf	_curr_value,f
  4345     07C2  3000               	movlw	0
  4346     07C3  3BE5               	subwfb	_curr_value+1,f
  4347     07C4  3001               	movlw	1
  4348     07C5  07AA               	addwf	get_and_set_decrement@counter,f
  4349     07C6  3000               	movlw	0
  4350     07C7  3DAB               	addwfc	get_and_set_decrement@counter+1,f
  4351                           
  4352                           ;main.c: 320:         }
  4353     07C8  2FCB               	goto	l2362
  4354     07C9                     l2360:
  4355                           
  4356                           ;main.c: 322:         {;main.c: 323:            curr_value = 0;
  4357     07C9  01E4               	clrf	_curr_value
  4358     07CA  01E5               	clrf	_curr_value+1
  4359     07CB                     l2362:
  4360                           
  4361                           ;main.c: 326:         set_delays(counter);
  4362     07CB  082B               	movf	get_and_set_decrement@counter+1,w
  4363     07CC  00A7               	movwf	set_delays@counter+1
  4364     07CD  082A               	movf	get_and_set_decrement@counter,w
  4365     07CE  00A6               	movwf	set_delays@counter
  4366     07CF  3186  266C  3187   	fcall	_set_delays
  4367     07D2                     l2364:
  4368                           
  4369                           ;main.c: 329:     }while(is_dec_switch_pressed());
  4370     07D2  318F  27AD  3187   	fcall	_is_dec_switch_pressed
  4371     07D5  3A00               	xorlw	0
  4372     07D6  1D03               	skipz
  4373     07D7  2FD9               	goto	u2591
  4374     07D8  2FDA               	goto	u2590
  4375     07D9                     u2591:
  4376     07D9  2FB9               	goto	l2356
  4377     07DA                     u2590:
  4378     07DA                     l153:
  4379     07DA  0008               	return
  4380     07DB                     __end_of_get_and_set_decrement:
  4381                           
  4382                           	psect	text19
  4383     066C                     __ptext19:	
  4384 ;; *************** function _set_delays *****************
  4385 ;; Defined at:
  4386 ;;		line 265 in file "main.c"
  4387 ;; Parameters:    Size  Location     Type
  4388 ;;  counter         2    6[BANK0 ] unsigned short 
  4389 ;; Auto vars:     Size  Location     Type
  4390 ;;		None
  4391 ;; Return value:  Size  Location     Type
  4392 ;;                  1    wreg      void 
  4393 ;; Registers used:
  4394 ;;		wreg, fsr0l, fsr0h, status,2, status,0, pclath, cstack
  4395 ;; Tracked objects:
  4396 ;;		On entry : 0/0
  4397 ;;		On exit  : 0/0
  4398 ;;		Unchanged: 0/0
  4399 ;; Data sizes:     COMMON   BANK0   BANK1   BANK2   BANK3   BANK4   BANK5
  4400 ;;      Params:         0       2       0       0       0       0       0
  4401 ;;      Locals:         0       0       0       0       0       0       0
  4402 ;;      Temps:          0       2       0       0       0       0       0
  4403 ;;      Totals:         0       4       0       0       0       0       0
  4404 ;;Total ram usage:        4 bytes
  4405 ;; Hardware stack levels used: 1
  4406 ;; Hardware stack levels required when called: 3
  4407 ;; This function calls:
  4408 ;;		_display_digit
  4409 ;; This function is called by:
  4410 ;;		_get_and_set_increment
  4411 ;;		_get_and_set_decrement
  4412 ;; This function uses a non-reentrant model
  4413 ;;
  4414                           
  4415     066C                     _set_delays:	
  4416                           ;psect for function _set_delays
  4417                           
  4418     066C                     l2296:	
  4419                           ;incstack = 0
  4420                           ; Regs used in _set_delays: [wreg-fsr0h+status,2+status,0+pclath+cstack]
  4421                           
  4422                           
  4423                           ;main.c: 265: void set_delays(uint16_t counter );main.c: 266: {;main.c: 267:     if(coun
      +                          ter < 10)
  4424     066C  3000               	movlw	0
  4425     066D  0020               	movlb	0	; select bank0
  4426     066E  0227               	subwf	set_delays@counter+1,w
  4427     066F  300A               	movlw	10
  4428     0670  1903               	skipnz
  4429     0671  0226               	subwf	set_delays@counter,w
  4430     0672  1803               	skipnc
  4431     0673  2E75               	goto	u2501
  4432     0674  2E76               	goto	u2500
  4433     0675                     u2501:
  4434     0675  2E8B               	goto	l2302
  4435     0676                     u2500:
  4436     0676                     l2298:
  4437                           
  4438                           ;main.c: 268:     {;main.c: 269:         display_digit(curr_value);
  4439     0676  0865               	movf	_curr_value+1,w
  4440     0677  00A5               	movwf	display_digit@value+1
  4441     0678  0864               	movf	_curr_value,w
  4442     0679  00A4               	movwf	display_digit@value
  4443     067A  3184  2469  3186   	fcall	_display_digit
  4444     067D                     l2300:
  4445                           
  4446                           ;main.c: 270:         _delay((unsigned long)((200)*(4000000/4000.0)));
  4447     067D  3002               	movlw	2
  4448     067E  0020               	movlb	0	; select bank0
  4449     067F  00A9               	movwf	??_set_delays+1
  4450     0680  3004               	movlw	4
  4451     0681  00A8               	movwf	??_set_delays
  4452     0682  30BA               	movlw	186
  4453     0683                     u3207:
  4454     0683  0B89               	decfsz	9,f
  4455     0684  2E83               	goto	u3207
  4456     0685  0BA8               	decfsz	??_set_delays,f
  4457     0686  2E83               	goto	u3207
  4458     0687  0BA9               	decfsz	??_set_delays+1,f
  4459     0688  2E83               	goto	u3207
  4460     0689  0000               	nop
  4461                           
  4462                           ;main.c: 271:     }
  4463     068A  2EB5               	goto	l139
  4464     068B                     l2302:
  4465     068B  3000               	movlw	0
  4466     068C  0227               	subwf	set_delays@counter+1,w
  4467     068D  300A               	movlw	10
  4468     068E  1903               	skipnz
  4469     068F  0226               	subwf	set_delays@counter,w
  4470     0690  1C03               	skipc
  4471     0691  2E93               	goto	u2511
  4472     0692  2E94               	goto	u2510
  4473     0693                     u2511:
  4474     0693  2EAE               	goto	l2310
  4475     0694                     u2510:
  4476     0694                     l2304:
  4477     0694  3000               	movlw	0
  4478     0695  0227               	subwf	set_delays@counter+1,w
  4479     0696  3064               	movlw	100
  4480     0697  1903               	skipnz
  4481     0698  0226               	subwf	set_delays@counter,w
  4482     0699  1803               	skipnc
  4483     069A  2E9C               	goto	u2521
  4484     069B  2E9D               	goto	u2520
  4485     069C                     u2521:
  4486     069C  2EAE               	goto	l2310
  4487     069D                     u2520:
  4488     069D                     l2306:
  4489                           
  4490                           ;main.c: 273:     {;main.c: 274:         display_digit(curr_value);
  4491     069D  0865               	movf	_curr_value+1,w
  4492     069E  00A5               	movwf	display_digit@value+1
  4493     069F  0864               	movf	_curr_value,w
  4494     06A0  00A4               	movwf	display_digit@value
  4495     06A1  3184  2469  3186   	fcall	_display_digit
  4496     06A4                     l2308:
  4497                           
  4498                           ;main.c: 275:         _delay((unsigned long)((50)*(4000000/4000.0)));
  4499     06A4  3041               	movlw	65
  4500     06A5  0020               	movlb	0	; select bank0
  4501     06A6  00A8               	movwf	??_set_delays
  4502     06A7  30EE               	movlw	238
  4503     06A8                     u3217:
  4504     06A8  0B89               	decfsz	9,f
  4505     06A9  2EA8               	goto	u3217
  4506     06AA  0BA8               	decfsz	??_set_delays,f
  4507     06AB  2EA8               	goto	u3217
  4508     06AC  0000               	nop
  4509                           
  4510                           ;main.c: 276:     }
  4511     06AD  2EB5               	goto	l139
  4512     06AE                     l2310:
  4513     06AE                     l2314:
  4514                           
  4515                           ;main.c: 278:     {;main.c: 279:         display_digit(curr_value);
  4516     06AE  0865               	movf	_curr_value+1,w
  4517     06AF  00A5               	movwf	display_digit@value+1
  4518     06B0  0864               	movf	_curr_value,w
  4519     06B1  00A4               	movwf	display_digit@value
  4520     06B2  3184  2469  3186   	fcall	_display_digit
  4521     06B5                     l139:	
  4522                           ;main.c: 281:     }
  4523                           
  4524     06B5  0008               	return
  4525     06B6                     __end_of_set_delays:
  4526                           
  4527                           	psect	text20
  4528     0469                     __ptext20:	
  4529 ;; *************** function _display_digit *****************
  4530 ;; Defined at:
  4531 ;;		line 241 in file "main.c"
  4532 ;; Parameters:    Size  Location     Type
  4533 ;;  value           2    4[BANK0 ] unsigned short 
  4534 ;; Auto vars:     Size  Location     Type
  4535 ;;		None
  4536 ;; Return value:  Size  Location     Type
  4537 ;;                  1    wreg      void 
  4538 ;; Registers used:
  4539 ;;		wreg, fsr0l, fsr0h, status,2, status,0, pclath, cstack
  4540 ;; Tracked objects:
  4541 ;;		On entry : 0/0
  4542 ;;		On exit  : 0/0
  4543 ;;		Unchanged: 0/0
  4544 ;; Data sizes:     COMMON   BANK0   BANK1   BANK2   BANK3   BANK4   BANK5
  4545 ;;      Params:         0       2       0       0       0       0       0
  4546 ;;      Locals:         0       0       0       0       0       0       0
  4547 ;;      Temps:          0       0       0       0       0       0       0
  4548 ;;      Totals:         0       2       0       0       0       0       0
  4549 ;;Total ram usage:        2 bytes
  4550 ;; Hardware stack levels used: 1
  4551 ;; Hardware stack levels required when called: 2
  4552 ;; This function calls:
  4553 ;;		___lwdiv
  4554 ;;		___lwmod
  4555 ;; This function is called by:
  4556 ;;		_set_delays
  4557 ;;		_check_and_set_max
  4558 ;;		_init
  4559 ;;		_main
  4560 ;; This function uses a non-reentrant model
  4561 ;;
  4562                           
  4563     0469                     _display_digit:	
  4564                           ;psect for function _display_digit
  4565                           
  4566     0469                     l2262:	
  4567                           ;incstack = 0
  4568                           ; Regs used in _display_digit: [wreg-fsr0h+status,2+status,0+pclath+cstack]
  4569                           
  4570                           
  4571                           ;main.c: 241: void display_digit(uint16_t value);main.c: 242: {;main.c: 243:      digipo
      +                          s[0] = DisplayNum[(value % 10)];
  4572     0469  300A               	movlw	10
  4573     046A  0020               	movlb	0	; select bank0
  4574     046B  00A0               	movwf	___lwmod@divisor
  4575     046C  3000               	movlw	0
  4576     046D  00A1               	movwf	___lwmod@divisor+1
  4577     046E  0825               	movf	display_digit@value+1,w
  4578     046F  00A3               	movwf	___lwmod@dividend+1
  4579     0470  0824               	movf	display_digit@value,w
  4580     0471  00A2               	movwf	___lwmod@dividend
  4581     0472  3187  272C  3184   	fcall	___lwmod
  4582     0475  3000               	movlw	low _DisplayNum
  4583     0476  0020               	movlb	0	; select bank0
  4584     0477  0720               	addwf	?___lwmod,w
  4585     0478  0084               	movwf	4
  4586     0479  3010               	movlw	high _DisplayNum
  4587     047A  3D21               	addwfc	?___lwmod+1,w
  4588     047B  3880               	iorlw	128
  4589     047C  0085               	movwf	5
  4590     047D  0800               	movf	0,w	;code access
  4591     047E  00DA               	movwf	_digipos
  4592                           
  4593                           ;main.c: 244:      digipos[1] = DisplayNum[(value / 10) % 10];
  4594     047F  300A               	movlw	10
  4595     0480  00A0               	movwf	___lwmod@divisor
  4596     0481  3000               	movlw	0
  4597     0482  00A1               	movwf	___lwmod@divisor+1
  4598     0483  300A               	movlw	10
  4599     0484  00F1               	movwf	___lwdiv@divisor
  4600     0485  3000               	movlw	0
  4601     0486  00F2               	movwf	___lwdiv@divisor+1
  4602     0487  0825               	movf	display_digit@value+1,w
  4603     0488  00F4               	movwf	___lwdiv@dividend+1
  4604     0489  0824               	movf	display_digit@value,w
  4605     048A  00F3               	movwf	___lwdiv@dividend
  4606     048B  3186  26B6  3184   	fcall	___lwdiv
  4607     048E  0872               	movf	?___lwdiv+1,w
  4608     048F  0020               	movlb	0	; select bank0
  4609     0490  00A3               	movwf	___lwmod@dividend+1
  4610     0491  0871               	movf	?___lwdiv,w
  4611     0492  00A2               	movwf	___lwmod@dividend
  4612     0493  3187  272C  3184   	fcall	___lwmod
  4613     0496  3000               	movlw	low _DisplayNum
  4614     0497  0020               	movlb	0	; select bank0
  4615     0498  0720               	addwf	?___lwmod,w
  4616     0499  0084               	movwf	4
  4617     049A  3010               	movlw	high _DisplayNum
  4618     049B  3D21               	addwfc	?___lwmod+1,w
  4619     049C  3880               	iorlw	128
  4620     049D  0085               	movwf	5
  4621     049E  0800               	movf	0,w	;code access
  4622     049F  00DB               	movwf	_digipos+1
  4623                           
  4624                           ;main.c: 245:      digipos[2] = DisplayNum[(value / 100) % 10];
  4625     04A0  300A               	movlw	10
  4626     04A1  00A0               	movwf	___lwmod@divisor
  4627     04A2  3000               	movlw	0
  4628     04A3  00A1               	movwf	___lwmod@divisor+1
  4629     04A4  3064               	movlw	100
  4630     04A5  00F1               	movwf	___lwdiv@divisor
  4631     04A6  3000               	movlw	0
  4632     04A7  00F2               	movwf	___lwdiv@divisor+1
  4633     04A8  0825               	movf	display_digit@value+1,w
  4634     04A9  00F4               	movwf	___lwdiv@dividend+1
  4635     04AA  0824               	movf	display_digit@value,w
  4636     04AB  00F3               	movwf	___lwdiv@dividend
  4637     04AC  3186  26B6  3184   	fcall	___lwdiv
  4638     04AF  0872               	movf	?___lwdiv+1,w
  4639     04B0  0020               	movlb	0	; select bank0
  4640     04B1  00A3               	movwf	___lwmod@dividend+1
  4641     04B2  0871               	movf	?___lwdiv,w
  4642     04B3  00A2               	movwf	___lwmod@dividend
  4643     04B4  3187  272C  3184   	fcall	___lwmod
  4644     04B7  3000               	movlw	low _DisplayNum
  4645     04B8  0020               	movlb	0	; select bank0
  4646     04B9  0720               	addwf	?___lwmod,w
  4647     04BA  0084               	movwf	4
  4648     04BB  3010               	movlw	high _DisplayNum
  4649     04BC  3D21               	addwfc	?___lwmod+1,w
  4650     04BD  3880               	iorlw	128
  4651     04BE  0085               	movwf	5
  4652     04BF  0800               	movf	0,w	;code access
  4653     04C0  00DC               	movwf	_digipos+2
  4654                           
  4655                           ;main.c: 246:      digipos[3] = DisplayNum[(value / 1000) % 10];
  4656     04C1  300A               	movlw	10
  4657     04C2  00A0               	movwf	___lwmod@divisor
  4658     04C3  3000               	movlw	0
  4659     04C4  00A1               	movwf	___lwmod@divisor+1
  4660     04C5  30E8               	movlw	232
  4661     04C6  00F1               	movwf	___lwdiv@divisor
  4662     04C7  3003               	movlw	3
  4663     04C8  00F2               	movwf	___lwdiv@divisor+1
  4664     04C9  0825               	movf	display_digit@value+1,w
  4665     04CA  00F4               	movwf	___lwdiv@dividend+1
  4666     04CB  0824               	movf	display_digit@value,w
  4667     04CC  00F3               	movwf	___lwdiv@dividend
  4668     04CD  3186  26B6  3184   	fcall	___lwdiv
  4669     04D0  0872               	movf	?___lwdiv+1,w
  4670     04D1  0020               	movlb	0	; select bank0
  4671     04D2  00A3               	movwf	___lwmod@dividend+1
  4672     04D3  0871               	movf	?___lwdiv,w
  4673     04D4  00A2               	movwf	___lwmod@dividend
  4674     04D5  3187  272C  3184   	fcall	___lwmod
  4675     04D8  3000               	movlw	low _DisplayNum
  4676     04D9  0020               	movlb	0	; select bank0
  4677     04DA  0720               	addwf	?___lwmod,w
  4678     04DB  0084               	movwf	4
  4679     04DC  3010               	movlw	high _DisplayNum
  4680     04DD  3D21               	addwfc	?___lwmod+1,w
  4681     04DE  3880               	iorlw	128
  4682     04DF  0085               	movwf	5
  4683     04E0  0800               	movf	0,w	;code access
  4684     04E1  00DD               	movwf	_digipos+3
  4685     04E2                     l124:
  4686     04E2  0008               	return
  4687     04E3                     __end_of_display_digit:
  4688                           
  4689                           	psect	text21
  4690     072C                     __ptext21:	
  4691 ;; *************** function ___lwmod *****************
  4692 ;; Defined at:
  4693 ;;		line 5 in file "/Applications/microchip/xc8/v2.46/pic/sources/c99/common/lwmod.c"
  4694 ;; Parameters:    Size  Location     Type
  4695 ;;  divisor         2    0[BANK0 ] unsigned int 
  4696 ;;  dividend        2    2[BANK0 ] unsigned int 
  4697 ;; Auto vars:     Size  Location     Type
  4698 ;;  counter         1   10[COMMON] unsigned char 
  4699 ;; Return value:  Size  Location     Type
  4700 ;;                  2    0[BANK0 ] unsigned int 
  4701 ;; Registers used:
  4702 ;;		wreg, status,2, status,0
  4703 ;; Tracked objects:
  4704 ;;		On entry : 0/0
  4705 ;;		On exit  : 0/0
  4706 ;;		Unchanged: 0/0
  4707 ;; Data sizes:     COMMON   BANK0   BANK1   BANK2   BANK3   BANK4   BANK5
  4708 ;;      Params:         0       4       0       0       0       0       0
  4709 ;;      Locals:         1       0       0       0       0       0       0
  4710 ;;      Temps:          1       0       0       0       0       0       0
  4711 ;;      Totals:         2       4       0       0       0       0       0
  4712 ;;Total ram usage:        6 bytes
  4713 ;; Hardware stack levels used: 1
  4714 ;; Hardware stack levels required when called: 1
  4715 ;; This function calls:
  4716 ;;		Nothing
  4717 ;; This function is called by:
  4718 ;;		_display_digit
  4719 ;; This function uses a non-reentrant model
  4720 ;;
  4721                           
  4722     072C                     ___lwmod:	
  4723                           ;psect for function ___lwmod
  4724                           
  4725     072C                     l2240:	
  4726                           ;incstack = 0
  4727                           ; Regs used in ___lwmod: [wreg+status,2+status,0]
  4728                           
  4729     072C  0020               	movlb	0	; select bank0
  4730     072D  0820               	movf	___lwmod@divisor,w
  4731     072E  0421               	iorwf	___lwmod@divisor+1,w
  4732     072F  1903               	btfsc	3,2
  4733     0730  2F32               	goto	u2401
  4734     0731  2F33               	goto	u2400
  4735     0732                     u2401:
  4736     0732  2F5C               	goto	l2258
  4737     0733                     u2400:
  4738     0733                     l2242:
  4739     0733  01FA               	clrf	___lwmod@counter
  4740     0734  0AFA               	incf	___lwmod@counter,f
  4741     0735  2F3F               	goto	l2248
  4742     0736                     l2244:
  4743     0736  3001               	movlw	1
  4744     0737                     u2415:
  4745     0737  35A0               	lslf	___lwmod@divisor,f
  4746     0738  0DA1               	rlf	___lwmod@divisor+1,f
  4747     0739  0B89               	decfsz	9,f
  4748     073A  2F37               	goto	u2415
  4749     073B                     l2246:
  4750     073B  3001               	movlw	1
  4751     073C  00F9               	movwf	??___lwmod
  4752     073D  0879               	movf	??___lwmod,w
  4753     073E  07FA               	addwf	___lwmod@counter,f
  4754     073F                     l2248:
  4755     073F  1FA1               	btfss	___lwmod@divisor+1,7
  4756     0740  2F42               	goto	u2421
  4757     0741  2F43               	goto	u2420
  4758     0742                     u2421:
  4759     0742  2F36               	goto	l2244
  4760     0743                     u2420:
  4761     0743                     l2250:
  4762     0743  0821               	movf	___lwmod@divisor+1,w
  4763     0744  0223               	subwf	___lwmod@dividend+1,w
  4764     0745  1D03               	skipz
  4765     0746  2F49               	goto	u2435
  4766     0747  0820               	movf	___lwmod@divisor,w
  4767     0748  0222               	subwf	___lwmod@dividend,w
  4768     0749                     u2435:
  4769     0749  1C03               	skipc
  4770     074A  2F4C               	goto	u2431
  4771     074B  2F4D               	goto	u2430
  4772     074C                     u2431:
  4773     074C  2F51               	goto	l2254
  4774     074D                     u2430:
  4775     074D                     l2252:
  4776     074D  0820               	movf	___lwmod@divisor,w
  4777     074E  02A2               	subwf	___lwmod@dividend,f
  4778     074F  0821               	movf	___lwmod@divisor+1,w
  4779     0750  3BA3               	subwfb	___lwmod@dividend+1,f
  4780     0751                     l2254:
  4781     0751  3001               	movlw	1
  4782     0752                     u2445:
  4783     0752  36A1               	lsrf	___lwmod@divisor+1,f
  4784     0753  0CA0               	rrf	___lwmod@divisor,f
  4785     0754  0B89               	decfsz	9,f
  4786     0755  2F52               	goto	u2445
  4787     0756                     l2256:
  4788     0756  3001               	movlw	1
  4789     0757  02FA               	subwf	___lwmod@counter,f
  4790     0758  1D03               	btfss	3,2
  4791     0759  2F5B               	goto	u2451
  4792     075A  2F5C               	goto	u2450
  4793     075B                     u2451:
  4794     075B  2F43               	goto	l2250
  4795     075C                     u2450:
  4796     075C                     l2258:
  4797     075C  0823               	movf	___lwmod@dividend+1,w
  4798     075D  00A1               	movwf	?___lwmod+1
  4799     075E  0822               	movf	___lwmod@dividend,w
  4800     075F  00A0               	movwf	?___lwmod
  4801     0760                     l686:
  4802     0760  0008               	return
  4803     0761                     __end_of___lwmod:
  4804                           
  4805                           	psect	text22
  4806     06B6                     __ptext22:	
  4807 ;; *************** function ___lwdiv *****************
  4808 ;; Defined at:
  4809 ;;		line 5 in file "/Applications/microchip/xc8/v2.46/pic/sources/c99/common/lwdiv.c"
  4810 ;; Parameters:    Size  Location     Type
  4811 ;;  divisor         2    1[COMMON] unsigned int 
  4812 ;;  dividend        2    3[COMMON] unsigned int 
  4813 ;; Auto vars:     Size  Location     Type
  4814 ;;  quotient        2    7[COMMON] unsigned int 
  4815 ;;  counter         1    6[COMMON] unsigned char 
  4816 ;; Return value:  Size  Location     Type
  4817 ;;                  2    1[COMMON] unsigned int 
  4818 ;; Registers used:
  4819 ;;		wreg, status,2, status,0
  4820 ;; Tracked objects:
  4821 ;;		On entry : 0/0
  4822 ;;		On exit  : 0/0
  4823 ;;		Unchanged: 0/0
  4824 ;; Data sizes:     COMMON   BANK0   BANK1   BANK2   BANK3   BANK4   BANK5
  4825 ;;      Params:         4       0       0       0       0       0       0
  4826 ;;      Locals:         3       0       0       0       0       0       0
  4827 ;;      Temps:          1       0       0       0       0       0       0
  4828 ;;      Totals:         8       0       0       0       0       0       0
  4829 ;;Total ram usage:        8 bytes
  4830 ;; Hardware stack levels used: 1
  4831 ;; Hardware stack levels required when called: 1
  4832 ;; This function calls:
  4833 ;;		Nothing
  4834 ;; This function is called by:
  4835 ;;		_map_value_to_pwm_resolution
  4836 ;;		_display_digit
  4837 ;; This function uses a non-reentrant model
  4838 ;;
  4839                           
  4840     06B6                     ___lwdiv:	
  4841                           ;psect for function ___lwdiv
  4842                           
  4843     06B6                     l2214:	
  4844                           ;incstack = 0
  4845                           ; Regs used in ___lwdiv: [wreg+status,2+status,0]
  4846                           
  4847     06B6  01F7               	clrf	___lwdiv@quotient
  4848     06B7  01F8               	clrf	___lwdiv@quotient+1
  4849     06B8                     l2216:
  4850     06B8  0871               	movf	___lwdiv@divisor,w
  4851     06B9  0472               	iorwf	___lwdiv@divisor+1,w
  4852     06BA  1903               	btfsc	3,2
  4853     06BB  2EBD               	goto	u2331
  4854     06BC  2EBE               	goto	u2330
  4855     06BD                     u2331:
  4856     06BD  2EED               	goto	l2236
  4857     06BE                     u2330:
  4858     06BE                     l2218:
  4859     06BE  01F6               	clrf	___lwdiv@counter
  4860     06BF  0AF6               	incf	___lwdiv@counter,f
  4861     06C0  2ECA               	goto	l2224
  4862     06C1                     l2220:
  4863     06C1  3001               	movlw	1
  4864     06C2                     u2345:
  4865     06C2  35F1               	lslf	___lwdiv@divisor,f
  4866     06C3  0DF2               	rlf	___lwdiv@divisor+1,f
  4867     06C4  0B89               	decfsz	9,f
  4868     06C5  2EC2               	goto	u2345
  4869     06C6                     l2222:
  4870     06C6  3001               	movlw	1
  4871     06C7  00F5               	movwf	??___lwdiv
  4872     06C8  0875               	movf	??___lwdiv,w
  4873     06C9  07F6               	addwf	___lwdiv@counter,f
  4874     06CA                     l2224:
  4875     06CA  1FF2               	btfss	___lwdiv@divisor+1,7
  4876     06CB  2ECD               	goto	u2351
  4877     06CC  2ECE               	goto	u2350
  4878     06CD                     u2351:
  4879     06CD  2EC1               	goto	l2220
  4880     06CE                     u2350:
  4881     06CE                     l2226:
  4882     06CE  3001               	movlw	1
  4883     06CF                     u2365:
  4884     06CF  35F7               	lslf	___lwdiv@quotient,f
  4885     06D0  0DF8               	rlf	___lwdiv@quotient+1,f
  4886     06D1  0B89               	decfsz	9,f
  4887     06D2  2ECF               	goto	u2365
  4888     06D3  0872               	movf	___lwdiv@divisor+1,w
  4889     06D4  0274               	subwf	___lwdiv@dividend+1,w
  4890     06D5  1D03               	skipz
  4891     06D6  2ED9               	goto	u2375
  4892     06D7  0871               	movf	___lwdiv@divisor,w
  4893     06D8  0273               	subwf	___lwdiv@dividend,w
  4894     06D9                     u2375:
  4895     06D9  1C03               	skipc
  4896     06DA  2EDC               	goto	u2371
  4897     06DB  2EDD               	goto	u2370
  4898     06DC                     u2371:
  4899     06DC  2EE2               	goto	l2232
  4900     06DD                     u2370:
  4901     06DD                     l2228:
  4902     06DD  0871               	movf	___lwdiv@divisor,w
  4903     06DE  02F3               	subwf	___lwdiv@dividend,f
  4904     06DF  0872               	movf	___lwdiv@divisor+1,w
  4905     06E0  3BF4               	subwfb	___lwdiv@dividend+1,f
  4906     06E1                     l2230:
  4907     06E1  1477               	bsf	___lwdiv@quotient,0
  4908     06E2                     l2232:
  4909     06E2  3001               	movlw	1
  4910     06E3                     u2385:
  4911     06E3  36F2               	lsrf	___lwdiv@divisor+1,f
  4912     06E4  0CF1               	rrf	___lwdiv@divisor,f
  4913     06E5  0B89               	decfsz	9,f
  4914     06E6  2EE3               	goto	u2385
  4915     06E7                     l2234:
  4916     06E7  3001               	movlw	1
  4917     06E8  02F6               	subwf	___lwdiv@counter,f
  4918     06E9  1D03               	btfss	3,2
  4919     06EA  2EEC               	goto	u2391
  4920     06EB  2EED               	goto	u2390
  4921     06EC                     u2391:
  4922     06EC  2ECE               	goto	l2226
  4923     06ED                     u2390:
  4924     06ED                     l2236:
  4925     06ED  0878               	movf	___lwdiv@quotient+1,w
  4926     06EE  00F2               	movwf	?___lwdiv+1
  4927     06EF  0877               	movf	___lwdiv@quotient,w
  4928     06F0  00F1               	movwf	?___lwdiv
  4929     06F1                     l676:
  4930     06F1  0008               	return
  4931     06F2                     __end_of___lwdiv:
  4932                           
  4933                           	psect	text23
  4934     0FAD                     __ptext23:	
  4935 ;; *************** function _is_dec_switch_pressed *****************
  4936 ;; Defined at:
  4937 ;;		line 153 in file "main.c"
  4938 ;; Parameters:    Size  Location     Type
  4939 ;;		None
  4940 ;; Auto vars:     Size  Location     Type
  4941 ;;  switch_statu    1    2[COMMON] unsigned char 
  4942 ;; Return value:  Size  Location     Type
  4943 ;;                  1    wreg      unsigned char 
  4944 ;; Registers used:
  4945 ;;		wreg, status,2
  4946 ;; Tracked objects:
  4947 ;;		On entry : 0/0
  4948 ;;		On exit  : 0/0
  4949 ;;		Unchanged: 0/0
  4950 ;; Data sizes:     COMMON   BANK0   BANK1   BANK2   BANK3   BANK4   BANK5
  4951 ;;      Params:         0       0       0       0       0       0       0
  4952 ;;      Locals:         1       0       0       0       0       0       0
  4953 ;;      Temps:          1       0       0       0       0       0       0
  4954 ;;      Totals:         2       0       0       0       0       0       0
  4955 ;;Total ram usage:        2 bytes
  4956 ;; Hardware stack levels used: 1
  4957 ;; Hardware stack levels required when called: 1
  4958 ;; This function calls:
  4959 ;;		Nothing
  4960 ;; This function is called by:
  4961 ;;		_get_and_set_decrement
  4962 ;;		_check_and_set_max
  4963 ;;		_set_factory_settings
  4964 ;;		_main
  4965 ;; This function uses a non-reentrant model
  4966 ;;
  4967                           
  4968     0FAD                     _is_dec_switch_pressed:	
  4969                           ;psect for function _is_dec_switch_pressed
  4970                           
  4971     0FAD                     l2280:	
  4972                           ;incstack = 0
  4973                           ; Regs used in _is_dec_switch_pressed: [wreg+status,2]
  4974                           
  4975                           
  4976                           ;main.c: 155:     uint8_t switch_status = 0;
  4977     0FAD  01F2               	clrf	is_dec_switch_pressed@switch_status
  4978     0FAE                     l2282:
  4979                           
  4980                           ;main.c: 157:     if(PORTBbits.RB5 == 0)
  4981     0FAE  0020               	movlb	0	; select bank0
  4982     0FAF  1A8D               	btfsc	13,5	;volatile
  4983     0FB0  2FB2               	goto	u2481
  4984     0FB1  2FB3               	goto	u2480
  4985     0FB2                     u2481:
  4986     0FB2  2FC4               	goto	l2292
  4987     0FB3                     u2480:
  4988     0FB3                     l2284:
  4989                           
  4990                           ;main.c: 158:     {;main.c: 160:         _delay((unsigned long)((20)*(4000000/4000.0)));
  4991     0FB3  301A               	movlw	26
  4992     0FB4  00F1               	movwf	??_is_dec_switch_pressed
  4993     0FB5  30F8               	movlw	248
  4994     0FB6                     u3227:
  4995     0FB6  0B89               	decfsz	9,f
  4996     0FB7  2FB6               	goto	u3227
  4997     0FB8  0BF1               	decfsz	??_is_dec_switch_pressed,f
  4998     0FB9  2FB6               	goto	u3227
  4999     0FBA  3200               	nop2
  5000     0FBB                     l2286:
  5001                           
  5002                           ;main.c: 161:         if(PORTBbits.RB5 == 0)
  5003     0FBB  0020               	movlb	0	; select bank0
  5004     0FBC  1A8D               	btfsc	13,5	;volatile
  5005     0FBD  2FBF               	goto	u2491
  5006     0FBE  2FC0               	goto	u2490
  5007     0FBF                     u2491:
  5008     0FBF  2FC3               	goto	l2290
  5009     0FC0                     u2490:
  5010     0FC0                     l2288:
  5011                           
  5012                           ;main.c: 162:         {;main.c: 163:             switch_status = 1 ;
  5013     0FC0  01F2               	clrf	is_dec_switch_pressed@switch_status
  5014     0FC1  0AF2               	incf	is_dec_switch_pressed@switch_status,f
  5015                           
  5016                           ;main.c: 164:         }
  5017     0FC2  2FC4               	goto	l2292
  5018     0FC3                     l2290:
  5019                           
  5020                           ;main.c: 166:         {;main.c: 167:             switch_status = 0 ;
  5021     0FC3  01F2               	clrf	is_dec_switch_pressed@switch_status
  5022     0FC4                     l2292:
  5023                           
  5024                           ;main.c: 171:     return switch_status ;
  5025     0FC4  0872               	movf	is_dec_switch_pressed@switch_status,w
  5026     0FC5                     l103:
  5027     0FC5  0008               	return
  5028     0FC6                     __end_of_is_dec_switch_pressed:
  5029                           
  5030                           	psect	text24
  5031     078C                     __ptext24:	
  5032 ;; *************** function _eeprom_write *****************
  5033 ;; Defined at:
  5034 ;;		line 6 in file "/Applications/microchip/xc8/v2.46/pic/sources/c99/pic/__eewrite.c"
  5035 ;; Parameters:    Size  Location     Type
  5036 ;;  addr            1    wreg     unsigned char 
  5037 ;;  value           1    1[COMMON] unsigned char 
  5038 ;; Auto vars:     Size  Location     Type
  5039 ;;  addr            1    4[COMMON] unsigned char 
  5040 ;; Return value:  Size  Location     Type
  5041 ;;                  1    wreg      void 
  5042 ;; Registers used:
  5043 ;;		wreg, status,2, status,0
  5044 ;; Tracked objects:
  5045 ;;		On entry : 0/0
  5046 ;;		On exit  : 0/0
  5047 ;;		Unchanged: 0/0
  5048 ;; Data sizes:     COMMON   BANK0   BANK1   BANK2   BANK3   BANK4   BANK5
  5049 ;;      Params:         1       0       0       0       0       0       0
  5050 ;;      Locals:         1       0       0       0       0       0       0
  5051 ;;      Temps:          2       0       0       0       0       0       0
  5052 ;;      Totals:         4       0       0       0       0       0       0
  5053 ;;Total ram usage:        4 bytes
  5054 ;; Hardware stack levels used: 1
  5055 ;; Hardware stack levels required when called: 1
  5056 ;; This function calls:
  5057 ;;		Nothing
  5058 ;; This function is called by:
  5059 ;;		_check_and_set_max
  5060 ;;		_set_factory_settings
  5061 ;;		_main
  5062 ;; This function uses a non-reentrant model
  5063 ;;
  5064                           
  5065     078C                     _eeprom_write:	
  5066                           ;psect for function _eeprom_write
  5067                           
  5068                           
  5069                           ;incstack = 0
  5070                           ; Regs used in _eeprom_write: [wreg+status,2+status,0]
  5071                           ;eeprom_write@addr stored from wreg
  5072     078C  00F4               	movwf	eeprom_write@addr
  5073     078D                     l385:	
  5074                           ;/Applications/microchip/xc8/v2.46/pic/sources/c99/pic/__eewrite.c: 6: eeprom_write(unsi
      +                          gned char addr, unsigned char value);/Applications/microchip/xc8/v2.46/pic/sources/c99/p
      +                          ic/__eewrite.c: 7: {;/Applications/microchip/xc8/v2.46/pic/sources/c99/pic/__eewrite.c: 
      +                          8:  do{ while (EECON1bits.WR) { continue; } EEADR = (addr); EEDATA = (value); EECON1 &= 
      +                          0x3F; STATUSbits.CARRY = 0; if (INTCONbits.GIE) { STATUSbits.CARRY = 1; } INTCONbits.GIE
      +                           = 0; EECON1bits.WREN = 1; EECON2 = 0x55; EECON2 = 0xAA; EECON1bits.WR = 1; EECON1bits.W
      +                          REN = 0; if (STATUSbits.CARRY) { INTCONbits.GIE = 1; } } while (0);
  5075                           
  5076     078D                     l386:
  5077     078D  0023               	movlb	3	; select bank3
  5078     078E  1895               	btfsc	21,1	;volsfr
  5079     078F  2F91               	goto	u2611
  5080     0790  2F92               	goto	u2610
  5081     0791                     u2611:
  5082     0791  2F8D               	goto	l386
  5083     0792                     u2610:
  5084     0792                     l2370:
  5085     0792  0874               	movf	eeprom_write@addr,w
  5086     0793  00F2               	movwf	??_eeprom_write
  5087     0794  01F3               	clrf	??_eeprom_write+1
  5088     0795  0872               	movf	??_eeprom_write,w
  5089     0796  0091               	movwf	17	;volatile
  5090     0797  0873               	movf	??_eeprom_write+1,w
  5091     0798  0092               	movwf	18	;volatile
  5092     0799  0871               	movf	eeprom_write@value,w
  5093     079A  0093               	movwf	19	;volatile
  5094     079B                     l2372:
  5095     079B  303F               	movlw	63
  5096     079C  00F2               	movwf	??_eeprom_write
  5097     079D  0872               	movf	??_eeprom_write,w
  5098     079E  0595               	andwf	21,f	;volsfr
  5099     079F                     l2374:
  5100     079F  0020               	movlb	0	; select bank0
  5101     07A0  1003               	bcf	3,0	;volatile
  5102     07A1                     l2376:
  5103     07A1  1F8B               	btfss	11,7	;volatile
  5104     07A2  2FA4               	goto	u2621
  5105     07A3  2FA5               	goto	u2620
  5106     07A4                     u2621:
  5107     07A4  2FA6               	goto	l389
  5108     07A5                     u2620:
  5109     07A5                     l2378:
  5110     07A5  1403               	bsf	3,0	;volatile
  5111     07A6                     l389:
  5112     07A6  138B               	bcf	11,7	;volatile
  5113     07A7  0023               	movlb	3	; select bank3
  5114     07A8  1515               	bsf	21,2	;volsfr
  5115     07A9                     l2380:
  5116     07A9  3055               	movlw	85
  5117     07AA  0096               	movwf	22	;volsfr
  5118     07AB  30AA               	movlw	170
  5119     07AC  0096               	movwf	22	;volsfr
  5120     07AD                     l2382:
  5121     07AD  1495               	bsf	21,1	;volsfr
  5122     07AE                     l2384:
  5123     07AE  1115               	bcf	21,2	;volsfr
  5124     07AF                     l2386:
  5125     07AF  0020               	movlb	0	; select bank0
  5126     07B0  1C03               	btfss	3,0	;volatile
  5127     07B1  2FB3               	goto	u2631
  5128     07B2  2FB4               	goto	u2630
  5129     07B3                     u2631:
  5130     07B3  2FB5               	goto	l392
  5131     07B4                     u2630:
  5132     07B4                     l2388:
  5133     07B4  178B               	bsf	11,7	;volatile
  5134     07B5                     l392:
  5135     07B5  0008               	return
  5136     07B6                     __end_of_eeprom_write:
  5137                           
  5138                           	psect	text25
  5139     0F55                     __ptext25:	
  5140 ;; *************** function _display_SET_command *****************
  5141 ;; Defined at:
  5142 ;;		line 249 in file "main.c"
  5143 ;; Parameters:    Size  Location     Type
  5144 ;;		None
  5145 ;; Auto vars:     Size  Location     Type
  5146 ;;		None
  5147 ;; Return value:  Size  Location     Type
  5148 ;;                  1    wreg      void 
  5149 ;; Registers used:
  5150 ;;		wreg, fsr0l, fsr0h, pclath
  5151 ;; Tracked objects:
  5152 ;;		On entry : 0/0
  5153 ;;		On exit  : 0/0
  5154 ;;		Unchanged: 0/0
  5155 ;; Data sizes:     COMMON   BANK0   BANK1   BANK2   BANK3   BANK4   BANK5
  5156 ;;      Params:         0       0       0       0       0       0       0
  5157 ;;      Locals:         0       0       0       0       0       0       0
  5158 ;;      Temps:          0       0       0       0       0       0       0
  5159 ;;      Totals:         0       0       0       0       0       0       0
  5160 ;;Total ram usage:        0 bytes
  5161 ;; Hardware stack levels used: 1
  5162 ;; Hardware stack levels required when called: 1
  5163 ;; This function calls:
  5164 ;;		Nothing
  5165 ;; This function is called by:
  5166 ;;		_check_and_set_max
  5167 ;; This function uses a non-reentrant model
  5168 ;;
  5169                           
  5170     0F55                     _display_SET_command:	
  5171                           ;psect for function _display_SET_command
  5172                           
  5173     0F55                     l2332:	
  5174                           ;incstack = 0
  5175                           ; Regs used in _display_SET_command: [wreg-fsr0h+pclath]
  5176                           
  5177                           
  5178                           ;main.c: 251:     digipos[0] = 0x78;
  5179     0F55  3078               	movlw	120
  5180     0F56  0020               	movlb	0	; select bank0
  5181     0F57  00DA               	movwf	_digipos
  5182                           
  5183                           ;main.c: 252:     digipos[1] = 0x79;
  5184     0F58  3079               	movlw	121
  5185     0F59  00DB               	movwf	_digipos+1
  5186                           
  5187                           ;main.c: 253:     digipos[2] = 0x6D;
  5188     0F5A  306D               	movlw	109
  5189     0F5B  00DC               	movwf	_digipos+2
  5190     0F5C                     l2334:
  5191                           
  5192                           ;main.c: 254:     digipos[3] = DisplayNum[0];
  5193     0F5C  3000               	movlw	low (_DisplayNum| (0+32768))
  5194     0F5D  0084               	movwf	4
  5195     0F5E  3090               	movlw	high (_DisplayNum| (0+32768))
  5196     0F5F  0085               	movwf	5
  5197     0F60  0800               	movf	0,w	;code access
  5198     0F61  00DD               	movwf	_digipos+3
  5199     0F62                     l127:
  5200     0F62  0008               	return
  5201     0F63                     __end_of_display_SET_command:
  5202                           
  5203                           	psect	intentry
  5204     0004                     __pintentry:	
  5205 ;; *************** function _isr *****************
  5206 ;; Defined at:
  5207 ;;		line 185 in file "main.c"
  5208 ;; Parameters:    Size  Location     Type
  5209 ;;		None
  5210 ;; Auto vars:     Size  Location     Type
  5211 ;;		None
  5212 ;; Return value:  Size  Location     Type
  5213 ;;                  1    wreg      void 
  5214 ;; Registers used:
  5215 ;;		wreg, fsr1l, fsr1h, status,2, status,0
  5216 ;; Tracked objects:
  5217 ;;		On entry : 0/0
  5218 ;;		On exit  : 0/0
  5219 ;;		Unchanged: 0/0
  5220 ;; Data sizes:     COMMON   BANK0   BANK1   BANK2   BANK3   BANK4   BANK5
  5221 ;;      Params:         0       0       0       0       0       0       0
  5222 ;;      Locals:         0       0       0       0       0       0       0
  5223 ;;      Temps:          1       0       0       0       0       0       0
  5224 ;;      Totals:         1       0       0       0       0       0       0
  5225 ;;Total ram usage:        1 bytes
  5226 ;; Hardware stack levels used: 1
  5227 ;; This function calls:
  5228 ;;		Nothing
  5229 ;; This function is called by:
  5230 ;;		Interrupt level 1
  5231 ;; This function uses a non-reentrant model
  5232 ;;
  5233                           
  5234     0004                     _isr:
  5235                           
  5236                           ;incstack = 0
  5237     0004  147E               	bsf	int$flags,0	;set compiler interrupt flag (level 1)
  5238                           
  5239                           ; Regs used in _isr: [wreg+fsr1l+fsr1h+status,2+status,0]
  5240     0005  3180               	pagesel	$
  5241     0006                     i1l2108:
  5242                           
  5243                           ;main.c: 189:     if (TMR0IF == 1 ){
  5244     0006  1D0B               	btfss	11,2	;volatile
  5245     0007  2809               	goto	u221_21
  5246     0008  280A               	goto	u221_20
  5247     0009                     u221_21:
  5248     0009  2861               	goto	i1l121
  5249     000A                     u221_20:
  5250     000A                     i1l2110:
  5251                           
  5252                           ;main.c: 192:         if ( pos == 0 )
  5253     000A  087C               	movf	_pos,w
  5254     000B  1D03               	btfss	3,2
  5255     000C  280E               	goto	u222_21
  5256     000D  280F               	goto	u222_20
  5257     000E                     u222_21:
  5258     000E  281C               	goto	i1l2122
  5259     000F                     u222_20:
  5260     000F                     i1l2112:
  5261                           
  5262                           ;main.c: 193:         {;main.c: 194:             LATC = digipos[pos];
  5263     000F  087C               	movf	_pos,w
  5264     0010  3E5A               	addlw	(low (_digipos| 0))& (0+255)
  5265     0011  0086               	movwf	6
  5266     0012  0187               	clrf	7
  5267     0013  0801               	movf	1,w
  5268     0014  0022               	movlb	2	; select bank2
  5269     0015  008E               	movwf	14	;volatile
  5270     0016                     i1l2114:
  5271                           
  5272                           ;main.c: 195:             PORTBbits.RB3 = 0;
  5273     0016  0020               	movlb	0	; select bank0
  5274     0017  118D               	bcf	13,3	;volatile
  5275     0018                     i1l2116:
  5276                           
  5277                           ;main.c: 196:             PORTBbits.RB2 = 1;
  5278     0018  150D               	bsf	13,2	;volatile
  5279     0019                     i1l2118:
  5280                           
  5281                           ;main.c: 197:             PORTBbits.RB1 = 1;
  5282     0019  148D               	bsf	13,1	;volatile
  5283     001A                     i1l2120:
  5284                           
  5285                           ;main.c: 198:             PORTBbits.RB0 = 1;
  5286     001A  140D               	bsf	13,0	;volatile
  5287                           
  5288                           ;main.c: 200:         }
  5289     001B  2854               	goto	i1l2158
  5290     001C                     i1l2122:
  5291     001C  037C               	decf	_pos,w
  5292     001D  1D03               	btfss	3,2
  5293     001E  2820               	goto	u223_21
  5294     001F  2821               	goto	u223_20
  5295     0020                     u223_21:
  5296     0020  282E               	goto	i1l2134
  5297     0021                     u223_20:
  5298     0021                     i1l2124:
  5299                           
  5300                           ;main.c: 202:         {;main.c: 204:                 LATC = digipos[pos];
  5301     0021  087C               	movf	_pos,w
  5302     0022  3E5A               	addlw	(low (_digipos| 0))& (0+255)
  5303     0023  0086               	movwf	6
  5304     0024  0187               	clrf	7
  5305     0025  0801               	movf	1,w
  5306     0026  0022               	movlb	2	; select bank2
  5307     0027  008E               	movwf	14	;volatile
  5308     0028                     i1l2126:
  5309                           
  5310                           ;main.c: 205:                 PORTBbits.RB2 = 0;
  5311     0028  0020               	movlb	0	; select bank0
  5312     0029  110D               	bcf	13,2	;volatile
  5313     002A                     i1l2128:
  5314                           
  5315                           ;main.c: 206:                 PORTBbits.RB3 = 1;
  5316     002A  158D               	bsf	13,3	;volatile
  5317     002B                     i1l2130:
  5318                           
  5319                           ;main.c: 207:                 PORTBbits.RB1 = 1;
  5320     002B  148D               	bsf	13,1	;volatile
  5321     002C                     i1l2132:
  5322                           
  5323                           ;main.c: 208:                 PORTBbits.RB0 = 1;
  5324     002C  140D               	bsf	13,0	;volatile
  5325                           
  5326                           ;main.c: 210:         }
  5327     002D  2854               	goto	i1l2158
  5328     002E                     i1l2134:
  5329     002E  3002               	movlw	2
  5330     002F  067C               	xorwf	_pos,w
  5331     0030  1D03               	btfss	3,2
  5332     0031  2833               	goto	u224_21
  5333     0032  2834               	goto	u224_20
  5334     0033                     u224_21:
  5335     0033  2841               	goto	i1l2146
  5336     0034                     u224_20:
  5337     0034                     i1l2136:
  5338                           
  5339                           ;main.c: 212:         {;main.c: 213:                 LATC = digipos[pos];
  5340     0034  087C               	movf	_pos,w
  5341     0035  3E5A               	addlw	(low (_digipos| 0))& (0+255)
  5342     0036  0086               	movwf	6
  5343     0037  0187               	clrf	7
  5344     0038  0801               	movf	1,w
  5345     0039  0022               	movlb	2	; select bank2
  5346     003A  008E               	movwf	14	;volatile
  5347     003B                     i1l2138:
  5348                           
  5349                           ;main.c: 214:                 PORTBbits.RB1 = 0;
  5350     003B  0020               	movlb	0	; select bank0
  5351     003C  108D               	bcf	13,1	;volatile
  5352     003D                     i1l2140:
  5353                           
  5354                           ;main.c: 215:                 PORTBbits.RB0 = 1;
  5355     003D  140D               	bsf	13,0	;volatile
  5356     003E                     i1l2142:
  5357                           
  5358                           ;main.c: 216:                 PORTBbits.RB3 = 1;
  5359     003E  158D               	bsf	13,3	;volatile
  5360     003F                     i1l2144:
  5361                           
  5362                           ;main.c: 217:                 PORTBbits.RB2 = 1;
  5363     003F  150D               	bsf	13,2	;volatile
  5364                           
  5365                           ;main.c: 219:         }
  5366     0040  2854               	goto	i1l2158
  5367     0041                     i1l2146:
  5368     0041  3003               	movlw	3
  5369     0042  067C               	xorwf	_pos,w
  5370     0043  1D03               	btfss	3,2
  5371     0044  2846               	goto	u225_21
  5372     0045  2847               	goto	u225_20
  5373     0046                     u225_21:
  5374     0046  2854               	goto	i1l115
  5375     0047                     u225_20:
  5376     0047                     i1l2148:
  5377                           
  5378                           ;main.c: 222:         {;main.c: 223:                 LATC = digipos[pos];
  5379     0047  087C               	movf	_pos,w
  5380     0048  3E5A               	addlw	(low (_digipos| 0))& (0+255)
  5381     0049  0086               	movwf	6
  5382     004A  0187               	clrf	7
  5383     004B  0801               	movf	1,w
  5384     004C  0022               	movlb	2	; select bank2
  5385     004D  008E               	movwf	14	;volatile
  5386     004E                     i1l2150:
  5387                           
  5388                           ;main.c: 224:                 PORTBbits.RB0 = 0;
  5389     004E  0020               	movlb	0	; select bank0
  5390     004F  100D               	bcf	13,0	;volatile
  5391     0050                     i1l2152:
  5392                           
  5393                           ;main.c: 225:                 PORTBbits.RB3 = 1;
  5394     0050  158D               	bsf	13,3	;volatile
  5395     0051                     i1l2154:
  5396                           
  5397                           ;main.c: 226:                 PORTBbits.RB2 = 1;
  5398     0051  150D               	bsf	13,2	;volatile
  5399     0052                     i1l2156:
  5400                           
  5401                           ;main.c: 227:                 PORTBbits.RB1 = 1;
  5402     0052  148D               	bsf	13,1	;volatile
  5403     0053  2854               	goto	i1l2158
  5404     0054                     i1l115:
  5405     0054                     i1l2158:
  5406                           
  5407                           ;main.c: 231:         if(pos >= 3 )
  5408     0054  3003               	movlw	3
  5409     0055  027C               	subwf	_pos,w
  5410     0056  1C03               	skipc
  5411     0057  2859               	goto	u226_21
  5412     0058  285A               	goto	u226_20
  5413     0059                     u226_21:
  5414     0059  285C               	goto	i1l2162
  5415     005A                     u226_20:
  5416     005A                     i1l2160:
  5417                           
  5418                           ;main.c: 232:         {;main.c: 233:             pos = 0;
  5419     005A  01FC               	clrf	_pos
  5420                           
  5421                           ;main.c: 234:         }
  5422     005B  2860               	goto	i1l2164
  5423     005C                     i1l2162:
  5424     005C  3001               	movlw	1
  5425     005D  00F0               	movwf	??_isr
  5426     005E  0870               	movf	??_isr,w
  5427     005F  07FC               	addwf	_pos,f
  5428     0060                     i1l2164:
  5429                           
  5430                           ;main.c: 237:          TMR0IF = 0;
  5431     0060  110B               	bcf	11,2	;volatile
  5432     0061                     i1l121:
  5433     0061  107E               	bcf	int$flags,0	;clear compiler interrupt flag (level 1)
  5434     0062  0009               	retfie
  5435     0063                     __end_of_isr:
  5436     007E                     btemp	set	126	;btemp
  5437     007E                     int$flags	set	126
  5438     007E                     wtemp0	set	126
  5439                           
  5440                           	psect	config
  5441                           
  5442                           ;Config register CONFIG1 @ 0x8007
  5443                           ;	Oscillator Selection
  5444                           ;	FOSC = 0x7, unprogrammed default
  5445                           ;	Watchdog Timer Enable
  5446                           ;	WDTE = OFF, WDT disabled
  5447                           ;	Power-up Timer Enable
  5448                           ;	PWRTE = 0x1, unprogrammed default
  5449                           ;	MCLR Pin Function Select
  5450                           ;	MCLRE = 0x1, unprogrammed default
  5451                           ;	Flash Program Memory Code Protection
  5452                           ;	CP = 0x1, unprogrammed default
  5453                           ;	Data Memory Code Protection
  5454                           ;	CPD = 0x1, unprogrammed default
  5455                           ;	Brown-out Reset Enable
  5456                           ;	BOREN = 0x3, unprogrammed default
  5457                           ;	Clock Out Enable
  5458                           ;	CLKOUTEN = 0x1, unprogrammed default
  5459                           ;	Internal/External Switchover
  5460                           ;	IESO = 0x1, unprogrammed default
  5461                           ;	Fail-Safe Clock Monitor Enable
  5462                           ;	FCMEN = 0x1, unprogrammed default
  5463     8007                     	org	32775
  5464     8007  3FE7               	dw	16359

Data Sizes:
    Strings     0
    Constant    10
    Data        0
    BSS         27
    Persistent  32
    Stack       0

Auto Spaces:
    Space          Size  Autos    Used
    COMMON           14     12      13
    BANK0            80     58      80
    BANK1            80      0       4
    BANK2            80      0       0
    BANK3            80      0       0
    BANK4            80      0       0
    BANK5            80      0       0

Pointer List with Targets:

    None.

Critical Paths under _main in COMMON

    _main->_init
    _map_value_to_pwm_resolution->___fltol
    ___xxtofl->___lwdiv
    ___flmul->__Umul8_16
    _set_factory_settings->_eeprom_write
    _init_EEPROM->_eeprom_read
    _initPwm->_load_pwm
    _display_digit->___lwmod
    ___lwmod->___lwdiv

Critical Paths under _isr in COMMON

    None.

Critical Paths under _main in BANK0

    _main->_map_value_to_pwm_resolution
    _map_value_to_pwm_resolution->___fltol
    ___fltol->___flmul
    ___flmul->___xxtofl
    _init->_check_and_set_max
    _check_and_set_max->_get_and_set_decrement
    _check_and_set_max->_get_and_set_increment
    _get_and_set_increment->_set_delays
    _get_and_set_decrement->_set_delays
    _set_delays->_display_digit
    _display_digit->___lwmod

Critical Paths under _isr in BANK0

    None.

Critical Paths under _main in BANK1

    None.

Critical Paths under _isr in BANK1

    None.

Critical Paths under _main in BANK2

    None.

Critical Paths under _isr in BANK2

    None.

Critical Paths under _main in BANK3

    None.

Critical Paths under _isr in BANK3

    None.

Critical Paths under _main in BANK4

    None.

Critical Paths under _isr in BANK4

    None.

Critical Paths under _main in BANK5

    None.

Critical Paths under _isr in BANK5

    None.

Call Graph Tables:

 ---------------------------------------------------------------------------------
 (Depth) Function   	        Calls       Base Space   Used Autos Params    Refs
 ---------------------------------------------------------------------------------
 (0) _main                                                 3     3      0   28775
                                             56 BANK0      2     2      0
                      _display_digit
                       _eeprom_write
              _get_and_set_decrement
              _get_and_set_increment
                               _init
              _is_dec_switch_pressed
              _is_inc_switch_pressed
                           _load_pwm
        _map_value_to_pwm_resolution
 ---------------------------------------------------------------------------------
 (1) _map_value_to_pwm_resolution                          8     4      4    4883
                                             48 BANK0      8     4      4
                            ___flmul
                            ___fltol
                            ___lwdiv
                           ___xxtofl
 ---------------------------------------------------------------------------------
 (2) ___xxtofl                                            14    10      4     656
                                              0 BANK0     14    10      4
                            ___lwdiv (ARG)
 ---------------------------------------------------------------------------------
 (2) ___fltol                                             10     6      4     427
                                             10 COMMON     2     2      0
                                             40 BANK0      8     4      4
                            ___flmul (ARG)
                            ___lwdiv (ARG)
                           ___xxtofl (ARG)
 ---------------------------------------------------------------------------------
 (2) ___flmul                                             26    18      8    2417
                                             14 BANK0     26    18      8
                          __Umul8_16
                            ___lwdiv (ARG)
                           ___xxtofl (ARG)
 ---------------------------------------------------------------------------------
 (3) __Umul8_16                                            9     7      2     799
                                              1 COMMON     9     7      2
 ---------------------------------------------------------------------------------
 (1) _init                                                 3     3      0   13905
                                             11 COMMON     1     1      0
                                             20 BANK0      2     2      0
                  _check_and_set_max
                      _display_digit
                            _initPwm
                        _init_EEPROM
                          _init_port
                         _init_timer
               _set_factory_settings
 ---------------------------------------------------------------------------------
 (2) _set_factory_settings                                 4     4      0     787
                                              5 COMMON     3     3      0
                 _display_FR_command
                       _eeprom_write
              _is_dec_switch_pressed
              _is_inc_switch_pressed
 ---------------------------------------------------------------------------------
 (3) _display_FR_command                                   0     0      0       0
 ---------------------------------------------------------------------------------
 (2) _init_timer                                           0     0      0       0
 ---------------------------------------------------------------------------------
 (2) _init_port                                            0     0      0       0
 ---------------------------------------------------------------------------------
 (2) _init_EEPROM                                         10    10      0     170
                                              5 COMMON     2     2      0
                                              0 BANK0      8     8      0
                        _eeprom_read
 ---------------------------------------------------------------------------------
 (3) _eeprom_read                                          4     4      0      31
                                              1 COMMON     4     4      0
 ---------------------------------------------------------------------------------
 (2) _initPwm                                              0     0      0     130
                           _load_pwm
 ---------------------------------------------------------------------------------
 (1) _load_pwm                                             5     5      0     130
                                              1 COMMON     5     5      0
 ---------------------------------------------------------------------------------
 (2) _check_and_set_max                                    8     8      0    9993
                                             12 BANK0      8     8      0
                _display_SET_command
                      _display_digit
                       _eeprom_write
              _get_and_set_decrement
              _get_and_set_increment
              _is_dec_switch_pressed
              _is_inc_switch_pressed
 ---------------------------------------------------------------------------------
 (3) _get_and_set_increment                                2     2      0    3169
                                             10 BANK0      2     2      0
              _is_inc_switch_pressed
                         _set_delays
 ---------------------------------------------------------------------------------
 (1) _is_inc_switch_pressed                                2     2      0      40
                                              1 COMMON     2     2      0
 ---------------------------------------------------------------------------------
 (3) _get_and_set_decrement                                2     2      0    3169
                                             10 BANK0      2     2      0
              _is_dec_switch_pressed
                         _set_delays
 ---------------------------------------------------------------------------------
 (4) _set_delays                                           4     2      2    3092
                                              6 BANK0      4     2      2
                      _display_digit
 ---------------------------------------------------------------------------------
 (2) _display_digit                                        2     0      2    2757
                                              4 BANK0      2     0      2
                            ___lwdiv
                            ___lwmod
 ---------------------------------------------------------------------------------
 (3) ___lwmod                                              6     2      4     952
                                              9 COMMON     2     2      0
                                              0 BANK0      4     0      4
                            ___lwdiv (ARG)
 ---------------------------------------------------------------------------------
 (2) ___lwdiv                                              8     4      4     961
                                              1 COMMON     8     4      4
 ---------------------------------------------------------------------------------
 (1) _is_dec_switch_pressed                                2     2      0      40
                                              1 COMMON     2     2      0
 ---------------------------------------------------------------------------------
 (3) _eeprom_write                                         4     3      1     602
                                              1 COMMON     4     3      1
 ---------------------------------------------------------------------------------
 (3) _display_SET_command                                  0     0      0       0
 ---------------------------------------------------------------------------------
 Estimated maximum stack depth 4
 ---------------------------------------------------------------------------------
 (Depth) Function   	        Calls       Base Space   Used Autos Params    Refs
 ---------------------------------------------------------------------------------
 (7) _isr                                                  1     1      0       0
                                              0 COMMON     1     1      0
 ---------------------------------------------------------------------------------
 Estimated maximum stack depth 7
 ---------------------------------------------------------------------------------

 Call Graph Graphs:

 _main (ROOT)
   _display_digit
     ___lwdiv
     ___lwmod
       ___lwdiv (ARG)
   _eeprom_write
   _get_and_set_decrement
     _is_dec_switch_pressed
     _set_delays
       _display_digit
   _get_and_set_increment
     _is_inc_switch_pressed
     _set_delays
   _init
     _check_and_set_max
       _display_SET_command
       _display_digit
       _eeprom_write
       _get_and_set_decrement
       _get_and_set_increment
       _is_dec_switch_pressed
       _is_inc_switch_pressed
     _display_digit
     _initPwm
       _load_pwm
     _init_EEPROM
       _eeprom_read
     _init_port
     _init_timer
     _set_factory_settings
       _display_FR_command
       _eeprom_write
       _is_dec_switch_pressed
       _is_inc_switch_pressed
   _is_dec_switch_pressed
   _is_inc_switch_pressed
   _load_pwm
   _map_value_to_pwm_resolution
     ___flmul
       __Umul8_16
       ___lwdiv (ARG)
       ___xxtofl (ARG)
         ___lwdiv (ARG)
     ___fltol
       ___flmul (ARG)
       ___lwdiv (ARG)
       ___xxtofl (ARG)
     ___lwdiv
     ___xxtofl

 _isr (ROOT)

 Address spaces:
Name               Size   Autos  Total    Cost      Usage
BIGRAM             1E0      0       0       0        0.0%
EEDATA             100      0       0       0        0.0%
NULL                 0      0       0       0        0.0%
CODE                 0      0       0       0        0.0%
BITCOMMON            E      0       0       1        0.0%
BITSFR0              0      0       0       1        0.0%
SFR0                 0      0       0       1        0.0%
COMMON               E      C       D       2       92.9%
BITSFR1              0      0       0       2        0.0%
SFR1                 0      0       0       2        0.0%
BITSFR2              0      0       0       3        0.0%
SFR2                 0      0       0       3        0.0%
STACK                0      0       0       3        0.0%
BITBANK0            50      0       0       4        0.0%
BITSFR3              0      0       0       4        0.0%
SFR3                 0      0       0       4        0.0%
BANK0               50     3A      50       5      100.0%
BITSFR4              0      0       0       5        0.0%
SFR4                 0      0       0       5        0.0%
BITSFR5              0      0       0       6        0.0%
SFR5                 0      0       0       6        0.0%
ABS                  0      0      61       6        0.0%
BITBANK1            50      0       0       7        0.0%
BITSFR6              0      0       0       7        0.0%
SFR6                 0      0       0       7        0.0%
BANK1               50      0       4       8        5.0%
BITSFR7              0      0       0       8        0.0%
SFR7                 0      0       0       8        0.0%
BITBANK2            50      0       0       9        0.0%
BITSFR8              0      0       0       9        0.0%
SFR8                 0      0       0       9        0.0%
BANK2               50      0       0      10        0.0%
BITSFR9              0      0       0      10        0.0%
SFR9                 0      0       0      10        0.0%
BITBANK3            50      0       0      11        0.0%
BITSFR10             0      0       0      11        0.0%
SFR10                0      0       0      11        0.0%
BANK3               50      0       0      12        0.0%
BITSFR11             0      0       0      12        0.0%
SFR11                0      0       0      12        0.0%
BITBANK4            50      0       0      13        0.0%
BITSFR12             0      0       0      13        0.0%
SFR12                0      0       0      13        0.0%
BANK4               50      0       0      14        0.0%
BITSFR13             0      0       0      14        0.0%
SFR13                0      0       0      14        0.0%
BITBANK5            50      0       0      15        0.0%
BITSFR14             0      0       0      15        0.0%
SFR14                0      0       0      15        0.0%
BANK5               50      0       0      16        0.0%
BITSFR15             0      0       0      16        0.0%
SFR15                0      0       0      16        0.0%
BITSFR16             0      0       0      17        0.0%
SFR16                0      0       0      17        0.0%
DATA                 0      0      61      17        0.0%
BITSFR17             0      0       0      18        0.0%
SFR17                0      0       0      18        0.0%
BITSFR18             0      0       0      19        0.0%
SFR18                0      0       0      19        0.0%
BITSFR19             0      0       0      20        0.0%
SFR19                0      0       0      20        0.0%
BITSFR20             0      0       0      21        0.0%
SFR20                0      0       0      21        0.0%
BITSFR21             0      0       0      22        0.0%
SFR21                0      0       0      22        0.0%
BITSFR22             0      0       0      23        0.0%
SFR22                0      0       0      23        0.0%
BITSFR23             0      0       0      24        0.0%
SFR23                0      0       0      24        0.0%
BITSFR24             0      0       0      25        0.0%
SFR24                0      0       0      25        0.0%
BITSFR25             0      0       0      26        0.0%
SFR25                0      0       0      26        0.0%
BITSFR26             0      0       0      27        0.0%
SFR26                0      0       0      27        0.0%
BITSFR27             0      0       0      28        0.0%
SFR27                0      0       0      28        0.0%
BITSFR28             0      0       0      29        0.0%
SFR28                0      0       0      29        0.0%
BITSFR29             0      0       0      30        0.0%
SFR29                0      0       0      30        0.0%
BITSFR30             0      0       0      31        0.0%
SFR30                0      0       0      31        0.0%
BITSFR31             0      0       0      32        0.0%
SFR31                0      0       0      32        0.0%


Microchip Technology PIC Macro Assembler V2.46 build 20240104201356 
Symbol Table                                                                                   Wed Feb 28 20:36:05 2024

                             ?_display_FR_command 0070                                                l82 0FFF  
                                              l91 0F71                                                l85 0F97  
                                              l88 066B                                                l97 0FDE  
                             __Umul8_16@word_mpld 0077                                               l103 0FC5  
                                             l106 0F54                                               l130 0F83  
                                             l203 0384                                               l124 04E2  
                                             l127 0F62                                               l153 07DA  
                                             l146 078B                                               l139 06B5  
                                             l172 0557                                               l181 0415  
                                             l158 061B                                               l191 0468  
                                             l168 0533                                               l600 05C8  
                                             l185 043E                                               l177 0403  
                                             l196 072B                                               l366 0F99  
                                             l392 07B5                                               l368 0FAC  
                                             l385 078D                                               l386 078D  
                                             l812 07ED                                               l389 07A6  
                                             l805 02A5                                               l814 07FD  
                                             l590 05C8                                               l850 0328  
                                             l851 0334                                               l843 030E  
                                             l676 06F1                                               l597 05B3  
                                             l837 02D5                                               l686 0760  
                                             l839 035C                                               l793 02B1  
                                             l799 0231                                               _GIE 005F  
                                             _PR2 001B                                               _isr 0004  
                             _display_SET_command 0F55                                               _pos 007C  
                                             wreg 0009                                      ___flmul@aexp 0040  
                                    ___flmul@bexp 0041                                      ___flmul@sign 003B  
                                    ___flmul@temp 0046                                      ___flmul@prod 0042  
                            ??_display_FR_command 0071                                      ___fltol@exp1 007B  
                                            l2010 025F                                              l2002 0236  
                                            l2020 0291                                              l2004 023B  
                                            l2012 0263                                              l2030 02A9  
                                            l2022 0293                                              l2014 0270  
                                            l2006 0243                                              l2024 029E  
                                            l2016 027A                                              l2008 0247  
                                            l2026 02A2                                              l2018 0288  
                                            l2220 06C1                                              l2300 067D  
                                            l2028 02A3                                              l2230 06E1  
                                            l2222 06C6                                              l2214 06B6  
                                            l2310 06AE                                              l2302 068B  
                                            l2232 06E2                                              l2224 06CA  
                                            l2216 06B8                                              l2240 072C  
                                            l2304 0694                                              l2320 0FE3  
                                            l2400 0F91                                              l2234 06E7  
                                            l2226 06CE                                              l2218 06BE  
                                            l2250 0743                                              l2242 0733  
                                            l2314 06AE                                              l2306 069D  
                                            l2322 0FEF                                              l2402 0F95  
                                            l2410 0F68                                              l2332 0F55  
                                            l2228 06DD                                              l2236 06ED  
                                            l2252 074D                                              l2244 0736  
                                            l2308 06A4                                              l2324 0FF7  
                                            l2420 05C9                                              l2412 0F6D  
                                            l2404 0F63                                              l2340 0F7D  
                                            l2500 0416                                              l2334 0F5C  
                                            l2254 0751                                              l2246 073B  
                                            l2262 0469                                              l2270 0FD4  
                                            l2350 077C                                              l2342 0761  
                                            l2326 0FF9                                              l2318 0FE0  
                                            l2430 05EE                                              l2422 05C9  
                                            l2414 0F6F                                              l2406 0F66  
                                            l2502 0419                                              l1710 07DC  
                                            l2280 0FAD                                              l2256 0756  
                                            l2248 073F                                              l2360 07C9  
                                            l2272 0FD9                                              l2264 0FC6  
                                            l2352 0783                                              l2344 0764  
                                            l2440 04E3                                              l2328 0FFB  
                                            l2432 05F4                                              l2424 05D4  
                                            l2408 0F67                                              l2416 0F4D  
                                            l2336 0F72                                              l2520 045F  
                                            l2512 043F                                              l2504 041E  
                                            l1720 07F9                                              l1712 07DE  
                                            l2600 0354                                              l2370 0792  
                                            l2290 0FC3                                              l2282 0FAE  
                                            l2258 075C                                              l2362 07CB  
                                            l2354 07B6                                              l2274 0FDC  
                                            l2266 0FC7                                              l2346 076F  
                                            l2450 0501                                              l2442 04E5  
                                            l2434 060A                                              l2426 05DF  
                                            l2418 0F52                                              l2338 0F77  
                                            l2514 0442                                              l2506 0430  
                                            l2610 06F8                                              l1714 07E5  
                                            l2530 056B                                              l2380 07A9  
                                            l2372 079B                                              l2284 0FB3  
                                            l2292 0FC4                                              l2364 07D2  
                                            l2356 07B9                                              l2268 0FCC  
                                            l2276 0FDD                                              l2348 0778  
                                            l2460 0517                                              l2444 04ED  
                                            l2452 0509                                              l2436 0613  
                                            l2428 05E8                                              l2516 0447  
                                            l2508 0436                                              l2620 0707  
                                            l2612 06FB                                              l1716 07E9  
                                            l1900 0081                                              l2540 058B  
                                            l2532 057C                                              l2524 0558  
                                            l2604 061C                                              l2382 07AD  
                                            l2374 079F                                              l2286 0FBB  
                                            l2358 07C0                                              l2470 0530  
                                            l2462 051F                                              l2454 050F  
                                            l2446 04FB                                              l2390 0F84  
                                            l2366 0F9F                                              l2438 0619  
                                            l2518 0459                                              l2630 0720  
                                            l2614 06FE                                              l1718 07F4  
                                            l1910 0096                                              l1902 0082  
                                            l2534 057D                                              l2526 0562  
                                            l2384 07AE                                              l2376 07A1  
                                            l2288 0FC0                                              l2296 066C  
                                            l2480 0547                                              l2472 053B  
                                            l2464 0522                                              l2456 0511  
                                            l2448 04FE                                              l2392 0F88  
                                            l2632 0725                                              l2616 0701  
                                            l2608 06F2                                              l1920 00AA  
                                            l1912 009E                                              l1904 0087  
                                            l2536 0585                                              l2560 02B4  
                                            l2640 0367                                              l2386 07AF  
                                            l2378 07A5                                              l2298 0676  
                                            l2482 0549                                              l2474 0541  
                                            l2466 0525                                              l2458 0515  
                                            l2394 0F8A                                              l2490 03EE  
                                            l2626 070B                                              l2618 0704  
                                            l1930 00C6                                              l1922 00AF  
                                            l1914 00A3                                              l1906 008C  
                                            l2554 05AA                                              l2546 0593  
                                            l2538 0587                                              l2562 02B9  
                                            l2650 0380                                              l2642 036C  
                                            l2634 035D                                              l2388 07B4  
                                            l2484 054F                                              l2476 0545  
                                            l2468 052D                                              l2396 0F8D  
                                            l2492 03F6                                              l2628 0713  
                                            l1940 00E4                                              l1932 00CB  
                                            l1924 00B4                                              l1916 00A5  
                                            l1908 0094                                              l2556 05B8  
                                            l2548 05A3                                              l2580 02FF  
                                            l2572 02E6                                              l2564 02BD  
                                            l2660 03A8                                              l2644 0374  
                                            l2636 035D                                              l2486 0556  
                                            l2478 0545                                              l2398 0F8F  
                                            l2494 0405                                              l1950 013B  
                                            l1942 00F1                                              l1934 00D0  
                                            l1926 00BC                                              l1918 00A9  
                                            l2558 05BD                                              l2590 032C  
                                            l2582 0307                                              l2574 02E9  
                                            l2566 02CD                                              l2662 03B2  
                                            l2670 03C3                                              l2654 038C  
                                            l2646 0377                                              l2638 0364  
                                            l2496 0408                                              l2488 03ED  
                                            l1960 016C                                              l1952 0148  
                                            l1944 0109                                              l1928 00BE  
                                            l2592 0336                                              l2584 0315  
                                            l2576 02F4                                              l2568 02DD  
                                            l2680 03EA                                              l2672 03C8  
                                            l2664 03B4                                              l2656 039D  
                                            l2648 0378                                              l2498 0410  
                                            l1970 01A9                                              l1962 0173  
                                            l1954 014F                                              l1946 0116  
                                            l1938 00D9                                              l2594 034A  
                                            l2586 031E                                              l2578 02FB  
                                            l2674 03CD                                              l2666 03B6  
                                            l2658 03A1                                              l1980 01FA  
                                            l1972 01BB                                              l1964 0185  
                                            l1956 015A                                              l1948 012E  
                                            l2596 034F                                              l2588 0322  
                                            l2676 03D3                                              l2668 03BC  
                                            l1982 0201                                              l1990 0211  
                                            l1974 01D0                                              l1966 018C  
                                            l1958 0161                                              l1894 0077  
                                            l2598 0353                                              l2678 03E7  
                                  ?_display_digit 0024                                              l1992 0215  
                                            l1984 0205                                              l1976 01E7  
                                            l1968 019E                                              l1896 007B  
                                            l1994 0216                                              l1986 0206  
                                            l1978 01EE                                              l1898 007D  
                                            l1996 021A                                              l1988 020D  
                                            l1998 022E                                              ?_isr 0070  
                                            _T0CS 04AD                                              u2000 023B  
                                            u2001 023A                                              u2010 0247  
                                            u2011 0246                                              u2020 0255  
                                            u2030 0270                                              u2031 026F  
                                            u2040 0288                                              u2041 0287  
                                            u2025 0251                                              u2050 02A2  
                                            u3010 0322                                              u2051 02A1  
                                            u2035 026C                                              u3011 0321  
                                            u1500 07F9                                              u3020 0328  
                                            u3100 03A8                                              u1501 07F8  
                                            u2045 0284                                              u3021 0327  
                                            u3005 0318                                              u3101 03A7  
                                            u3030 032C                                              u3110 03B2  
                                            u3031 032B                                              u3111 03B1  
                                            _LATC 010E                                              u2400 0733  
                                            u3040 0340                                              u3120 03CD  
                                            u2401 0732                                              u3121 03CC  
                                            u2330 06BE                                              u3050 034F  
                                            u3130 03D3                                              u2331 06BD  
                                            u3051 034E                                              u3131 03D2  
                                            u3115 03AE                                              u2420 0743  
                                            u2500 0676                                              u3060 0353  
                                            u2421 0742                                              u2501 0675  
                                            u3061 0352                                              u3045 033C  
                                            u2350 06CE                                              u2430 074D  
                                            u2510 0694                                              u3070 072B  
                                            u2351 06CD                                              u2431 074C  
                                            u2415 0737                                              u2511 0693  
                                            u3207 0683                                              u3071 072A  
                                            u2520 069D                                              u2600 0F9F  
                                            u1480 07E9                                              u1800 0081  
                                            u3080 0374                                              u2345 06C2  
                                            u3217 06A8                                              u2521 069C  
                                            u2601 0F9E                                              u1481 07E8  
                                            u1801 0080                                              u3081 0373  
                                            u2610 0792                                              u2370 06DD  
                                            u2450 075C                                              u1810 0087  
                                            u3090 0380                                              u2611 0791  
                                            u3227 0FB6                                              u2371 06DC  
                                            u2451 075B                                              u2435 0749  
                                            u3147 0719                                              u1811 0086  
                                            u3091 037F                                              u2620 07A5  
                                            u2460 0FCC                                              u2700 052D  
                                            u1900 01C6                                              u1820 008C  
                                            u2621 07A4                                              u2365 06CF  
                                            u2445 0752                                              u2461 0FCB  
                                            u2701 052C                                              u3157 03FB  
                                            u1821 008B                                              u2630 07B4  
                                            u2390 06ED                                              u2470 0FD9  
                                            u2710 0541                                              u2550 0FFF  
                                            u1910 01DD                                              u1830 00A9  
                                            u2631 07B3                                              u2391 06EC  
                                            u2375 06D9                                              u2471 0FD8  
                                            u2711 0540                                              u2551 0FFE  
                                            u2535 0FE6                                              u3167 041B  
                                            u1495 07EE                                              u1831 00A8  
                                            u2480 0FB3                                              u2560 076F  
                                            u2640 05F4                                              u2800 0457  
                                            u2720 03F6                                              u1840 00AF  
                                            u2481 0FB2                                              u2385 06E3  
                                            u2561 076E                                              u2545 0FF2  
                                            u2641 05F3                                              u2801 0454  
                                            u3177 0444                                              u2721 03F5  
                                            u1905 01C2                                              u1841 00AE  
                                            u2490 0FC0                                              u2570 078B  
                                            u2650 0619                                              u2730 0410  
                                            u1850 00B4                                              u2491 0FBF  
                                            u2571 078A                                              u3187 04F3  
                                            u2651 0618                                              u2731 040F  
                                            u1915 01D9                                              u1851 00B3  
                                            u2580 07C0                                              u2660 04ED  
                                            u2820 0467                                              u2804 0451  
                                            u2740 0415                                              u1940 0205  
                                            u1860 00CB                                              u2581 07BF  
                                            u3197 0FCF                                              u2565 076B  
                                            u2661 04EC                                              u2821 0466  
                                            u2741 0414                                              u1941 0204  
                                            u1925 01E8                                              u1861 00CA  
                                            u2590 07DA                                              u2670 0509  
                                            u2814 0459                                              u2750 0426  
                                            u1870 00D0                                              u2910 05B8  
                                            u2830 0562                                              u2591 07D9  
                                            u2671 0508                                              u2751 0423  
                                            u1935 01FB                                              u1871 00CF  
                                            u2911 05B7                                              u2831 0561  
                                            u2680 050F                                              u2760 042E  
                                            u1960 0215                                              u2920 05BD  
                                            u2840 0578                                              u2681 050E  
                                            u2761 042B                                              u1961 0214  
                                            u2921 05BC                                              u2905 05AB  
                                            u2690 051F                                              u1970 021A  
                                            u2850 058B                                              u2930 02B9  
                                            u2691 051E                                              u1971 0219  
                                            u1955 0207                                              u2851 058A  
                                            u2931 02B8                                              u2780 043E  
                                            u2764 0428                                              u1980 022E  
                                            u2860 0592                                              u2940 02BD  
                                            u2781 043D                                              u1981 022D  
                                            u1885 0149                                              u2861 0591  
                                            u2845 0574                                              u2941 02BC  
                                            u2790 044F                                              u2774 0430  
                                            u1990 0235                                              u2950 02DD  
                                            u2791 044C                                              u1991 0234  
                                            u1895 0174                                              u2951 02DC  
                                            u2880 05A2                                              u2881 05A1  
                                            u2890 05A9                                              u2970 02FA  
                                            u2891 05A8                                              u2875 0594  
                                            u2971 02F9                                              u2965 02EE  
                                            u2990 0314                                              u2991 0313  
                                            u2985 0308                                              _TMR2 001A  
                                  ??_eeprom_write 0072                                              _main 035D  
                                            _init 06F2                                              fsr0h 0005  
                                            fsr1h 0007                                              indf0 0000  
                                            fsr0l 0004                                              indf1 0001  
                                            fsr1l 0006                                              btemp 007E  
                                    ?_init_EEPROM 0070                              ?_display_SET_command 0070  
                                            start 0063                                             ??_isr 0070  
                               _check_and_set_max 04E3                                     ___fltol@sign1 007A  
                                           ?_main 0070                                             ?_init 0070  
                                           _EEADR 0191                                   __end_of___flmul 02B2  
                              ?_check_and_set_max 0070                                   __end_of___fltol 05C9  
                                 __end_of___lwdiv 06F2                                             i1l121 0061  
                                           i1l115 0054                                   __end_of___lwmod 0761  
                                           _PORTB 000D                                             _PORTC 000E  
                                           _TRISB 008D                                             _TRISC 008E  
                                      _DisplayNum 1000                               ??_check_and_set_max 002C  
                                 __end_of_initPwm 0F98                            main@last_upper_byte_wr 0059  
                                           status 0003                                             wtemp0 007E  
                           ??_display_SET_command 0071                                   __initialization 0065  
                         ??_is_inc_switch_pressed 0071                                      __end_of_main 03ED  
                                    __end_of_init 072C                         __end_of_check_and_set_max 0558  
                           _get_and_set_decrement 07B6                                            ??_main 007C  
                                          ??_init 0034                                 _last_value_status 006E  
                                     init@counter 007B                                   ??_display_digit 007B  
                           _is_dec_switch_pressed 0FAD                                            _EEDATA 0193  
                                          _CCPR5L 031C                                            _EECON1 0195  
                                          _EECON2 0196                                            _ANSELB 018D  
                                          i1l2110 000A                                            i1l2120 001A  
                                          i1l2112 000F                                            i1l2130 002B  
                                          i1l2114 0016                                            i1l2122 001C  
                                          i1l2140 003D                                            i1l2132 002C  
                                          i1l2124 0021                                            i1l2116 0018  
                                          i1l2108 0006                                            i1l2150 004E  
                                          i1l2142 003E                                            i1l2126 0028  
                                          i1l2134 002E                                            i1l2118 0019  
                                          i1l2160 005A                                            i1l2152 0050  
                                          i1l2144 003F                                            i1l2136 0034  
                                          i1l2128 002A                                            i1l2162 005C  
                                          i1l2154 0051                                            i1l2138 003B  
                                          i1l2146 0041                                            i1l2164 0060  
                                          i1l2156 0052                                            i1l2148 0047  
                                          i1l2158 0054                                            u221_20 000A  
                                          u221_21 0009                                            u222_20 000F  
                                          u222_21 000E                                            u223_20 0021  
                                          u223_21 0020                                            u224_20 0034  
                                          u224_21 0033                                            u225_20 0047  
                                          u225_21 0046                                            u226_20 005A  
                                          u226_21 0059                                            _OSCCON 0099  
                                          _TMR0IE 005D                                            _TMR0IF 005A  
                                          _TMR2IE 0489                                            _TMR2IF 0089  
                                          _TMR2ON 00E2                             _get_and_set_increment 0761  
                                          _TRISA4 0464                     init_EEPROM@last_upper_byte_rd 0022  
                                __end_of___xxtofl 035D                                         ??___flmul 0036  
                                       ??___fltol 004C                                         ??___lwdiv 0075  
                                       ??___lwmod 0079                                  __end_of_load_pwm 1000  
                                     load_pwm@lsb 0073                                       load_pwm@msb 0074  
     check_and_set_max@max_value_setting_selected 002F                              __end_of_eeprom_write 07B6  
                                       ??_initPwm 0076                                      ___xxtofl@arg 002A  
                                    ___xxtofl@exp 0029                                      ___xxtofl@val 0020  
                         __end_of__initialization 0073                                   eeprom_read@addr 0074  
                                      ___fltol@f1 0048                                    __pcstackCOMMON 0070  
                          ?_get_and_set_decrement 0070                            ?_is_dec_switch_pressed 0070  
                               eeprom_write@value 0071                                        __pbssBANK0 005A  
                                      __pbssBANK1 00A0                            ?_get_and_set_increment 0070  
              check_and_set_max@max_upper_byte_wr 0030                                 __end_of__Umul8_16 07FE  
                                      __pmaintext 035D                                        __pintentry 0004  
                                         _CCP5CON 031E                                display_digit@value 0024  
                                       ?___xxtofl 0020                                     _is_pwm_loaded 006C  
                                       ?_load_pwm 0070                      map_value_to_pwm_resolution@x 0050  
                                      _last_value 0062                                           ___flmul 0077  
                                         ___fltol 0558                                           ___lwdiv 06B6  
                                         ___lwmod 072C                                        _curr_value 0064  
                   __end_of_is_inc_switch_pressed 0FDF                                        _init_timer 0F4D  
                                         _digipos 005A                                           __ptext1 061C  
                                         __ptext2 02B2                                           __ptext3 0558  
                                         __ptext4 0077                                           __ptext5 07DB  
                                         __ptext6 06F2                                           __ptext7 03ED  
                                         __ptext8 0F72                                           __ptext9 0F4D  
                                         _initPwm 0F84                                        ??___xxtofl 0024  
                    get_and_set_decrement@counter 002A                                 __end_of_init_port 0F72  
                                      _duty_cycle 006A                                           _on_time 00A0  
                                         clrloop0 0F48                       __end_of_display_SET_command 0F63  
                    init_EEPROM@max_upper_byte_rd 0026                              end_of_initialization 0073  
                                      ??_load_pwm 0071                                      _eeprom_write 078C  
                                      _set_delays 066C                                         _PORTBbits 000D  
                                   ___xxtofl@sign 0028                                        _pwm_period 005E  
                    ?_map_value_to_pwm_resolution 0050                             __end_of_display_digit 04E3  
                                     ___flmul@grs 003C                                     ??_eeprom_read 0071  
                         ??_get_and_set_decrement 007B                                __end_of_DisplayNum 100A  
                    __end_of_set_factory_settings 0469                                       ?_init_timer 0070  
                         ??_is_dec_switch_pressed 0071                               start_initialization 0065  
                                     __end_of_isr 0063                           ??_get_and_set_increment 007B  
                   ??_map_value_to_pwm_resolution 0054                                     ??_init_EEPROM 0075  
                          main@last_lower_byte_wr 0058                                       ?_set_delays 0026  
                             __end_of_eeprom_read 0FAD                                         __Umul8_16 07DB  
                                       ___flmul@a 0032                                         ___flmul@b 002E  
                                     __pbssCOMMON 007C                                         ___latbits 0002  
                                   __pcstackBANK0 0020                                  eeprom_write@addr 0074  
                   init_EEPROM@last_lower_byte_rd 0020  set_factory_settings@factory_setting_mode_enabled 0077  
                                ___lwdiv@dividend 0073                               __end_of_init_EEPROM 061C  
                                        ?___flmul 002E                                          ?___fltol 0048  
                                      ?__Umul8_16 0071                                          ?___lwdiv 0071  
                                        ?___lwmod 0020              map_value_to_pwm_resolution@max_value 0052  
                                        ?_initPwm 0070                       check_and_set_max@max_eeprom 0031  
                      __end_of_display_FR_command 0F84                                 load_pwm@pwm_value 0075  
                                ___lwdiv@quotient 0077                                         _max_value 0066  
                               set_delays@counter 0026                                         _init_port 0F63  
                            _set_factory_settings 03ED                      get_and_set_increment@counter 002A  
                                       clear_ram0 0F47                                       _eeprom_read 0F98  
              is_dec_switch_pressed@switch_status 0072                                         _pwm_value 0068  
                           _is_inc_switch_pressed 0FC6                                        ?_init_port 0070  
                           ?_set_factory_settings 0070                                        _EECON1bits 0195  
                                     _init_EEPROM 05C9                     __end_of_get_and_set_decrement 07DB  
              check_and_set_max@max_lower_byte_wr 002E                                       ??__Umul8_16 0073  
                                    ??_init_timer 0071                     __end_of_is_dec_switch_pressed 0FC6  
                                        ___xxtofl 02B2                                   ___lwdiv@divisor 0071  
                                 ___lwdiv@counter 0076                                          __ptext10 0F63  
                                        __ptext11 05C9                                          __ptext20 0469  
                                        __ptext12 0F98                                          __ptext21 072C  
                                        __ptext13 0F84                                          __ptext22 06B6  
                                        __ptext14 0FDF                                          __ptext23 0FAD  
                                        __ptext15 04E3                                          __ptext24 078C  
                                        __ptext16 0761                                          __ptext25 0F55  
                                        __ptext17 0FC6                                          __ptext18 07B6  
                                        __ptext19 066C                     __end_of_get_and_set_increment 078C  
                                        _load_pwm 0FDF                                __end_of_init_timer 0F55  
                                    ??_set_delays 0028                                          int$flags 007E  
              is_inc_switch_pressed@switch_status 0072                            ?_is_inc_switch_pressed 0070  
                                      _INTCONbits 000B                                       _on_time_int 006F  
                               _is_pwm_configured 006D                                __end_of_set_delays 06B6  
                                     ??_init_port 0071                            ??_set_factory_settings 0075  
                                        intlevel1 0000                      init_EEPROM@max_lower_byte_rd 0024  
                                ___lwmod@dividend 0022                                     __pstringtext1 1000  
                          __Umul8_16@multiplicand 0071                                        _OPTION_REG 0095  
                                 ___lwmod@divisor 0020                                   ___lwmod@counter 007A  
             __end_of_map_value_to_pwm_resolution 066C                       _map_value_to_pwm_resolution 061C  
                 check_and_set_max@some_value_set 0033                                     _display_digit 0469  
                                   ?_eeprom_write 0071                                        _STATUSbits 0003  
                            __Umul8_16@multiplier 0079                                      ?_eeprom_read 0070  
                              _display_FR_command 0F72                                 __Umul8_16@product 0075  
